
bomb：     文件格式 elf64-x86-64


Disassembly of section .init:

0000000000000e98 <_init>:
 e98:	48 83 ec 08          	sub    $0x8,%rsp
 e9c:	48 8b 05 3d 31 20 00 	mov    0x20313d(%rip),%rax        # 203fe0 <__gmon_start__>
 ea3:	48 85 c0             	test   %rax,%rax
 ea6:	74 02                	je     eaa <_init+0x12>
 ea8:	ff d0                	callq  *%rax
 eaa:	48 83 c4 08          	add    $0x8,%rsp
 eae:	c3                   	retq   

Disassembly of section .plt:

0000000000000eb0 <.plt>:
     eb0:	ff 35 52 31 20 00    	pushq  0x203152(%rip)        # 204008 <_GLOBAL_OFFSET_TABLE_+0x8>
     eb6:	ff 25 54 31 20 00    	jmpq   *0x203154(%rip)        # 204010 <_GLOBAL_OFFSET_TABLE_+0x10>
     ebc:	0f 1f 40 00          	nopl   0x0(%rax)

0000000000000ec0 <getenv@plt>:
     ec0:	ff 25 52 31 20 00    	jmpq   *0x203152(%rip)        # 204018 <getenv@GLIBC_2.2.5>
     ec6:	68 00 00 00 00       	pushq  $0x0
     ecb:	e9 e0 ff ff ff       	jmpq   eb0 <.plt>

0000000000000ed0 <__errno_location@plt>:
     ed0:	ff 25 4a 31 20 00    	jmpq   *0x20314a(%rip)        # 204020 <__errno_location@GLIBC_2.2.5>
     ed6:	68 01 00 00 00       	pushq  $0x1
     edb:	e9 d0 ff ff ff       	jmpq   eb0 <.plt>

0000000000000ee0 <strcpy@plt>:
     ee0:	ff 25 42 31 20 00    	jmpq   *0x203142(%rip)        # 204028 <strcpy@GLIBC_2.2.5>
     ee6:	68 02 00 00 00       	pushq  $0x2
     eeb:	e9 c0 ff ff ff       	jmpq   eb0 <.plt>

0000000000000ef0 <puts@plt>:
     ef0:	ff 25 3a 31 20 00    	jmpq   *0x20313a(%rip)        # 204030 <puts@GLIBC_2.2.5>
     ef6:	68 03 00 00 00       	pushq  $0x3
     efb:	e9 b0 ff ff ff       	jmpq   eb0 <.plt>

0000000000000f00 <write@plt>:
     f00:	ff 25 32 31 20 00    	jmpq   *0x203132(%rip)        # 204038 <write@GLIBC_2.2.5>
     f06:	68 04 00 00 00       	pushq  $0x4
     f0b:	e9 a0 ff ff ff       	jmpq   eb0 <.plt>

0000000000000f10 <fclose@plt>:
     f10:	ff 25 2a 31 20 00    	jmpq   *0x20312a(%rip)        # 204040 <fclose@GLIBC_2.2.5>
     f16:	68 05 00 00 00       	pushq  $0x5
     f1b:	e9 90 ff ff ff       	jmpq   eb0 <.plt>

0000000000000f20 <system@plt>:
     f20:	ff 25 22 31 20 00    	jmpq   *0x203122(%rip)        # 204048 <system@GLIBC_2.2.5>
     f26:	68 06 00 00 00       	pushq  $0x6
     f2b:	e9 80 ff ff ff       	jmpq   eb0 <.plt>

0000000000000f30 <printf@plt>:
     f30:	ff 25 1a 31 20 00    	jmpq   *0x20311a(%rip)        # 204050 <printf@GLIBC_2.2.5>
     f36:	68 07 00 00 00       	pushq  $0x7
     f3b:	e9 70 ff ff ff       	jmpq   eb0 <.plt>

0000000000000f40 <rewind@plt>:
     f40:	ff 25 12 31 20 00    	jmpq   *0x203112(%rip)        # 204058 <rewind@GLIBC_2.2.5>
     f46:	68 08 00 00 00       	pushq  $0x8
     f4b:	e9 60 ff ff ff       	jmpq   eb0 <.plt>

0000000000000f50 <dup@plt>:
     f50:	ff 25 0a 31 20 00    	jmpq   *0x20310a(%rip)        # 204060 <dup@GLIBC_2.2.5>
     f56:	68 09 00 00 00       	pushq  $0x9
     f5b:	e9 50 ff ff ff       	jmpq   eb0 <.plt>

0000000000000f60 <close@plt>:
     f60:	ff 25 02 31 20 00    	jmpq   *0x203102(%rip)        # 204068 <close@GLIBC_2.2.5>
     f66:	68 0a 00 00 00       	pushq  $0xa
     f6b:	e9 40 ff ff ff       	jmpq   eb0 <.plt>

0000000000000f70 <fputc@plt>:
     f70:	ff 25 fa 30 20 00    	jmpq   *0x2030fa(%rip)        # 204070 <fputc@GLIBC_2.2.5>
     f76:	68 0b 00 00 00       	pushq  $0xb
     f7b:	e9 30 ff ff ff       	jmpq   eb0 <.plt>

0000000000000f80 <fgets@plt>:
     f80:	ff 25 f2 30 20 00    	jmpq   *0x2030f2(%rip)        # 204078 <fgets@GLIBC_2.2.5>
     f86:	68 0c 00 00 00       	pushq  $0xc
     f8b:	e9 20 ff ff ff       	jmpq   eb0 <.plt>

0000000000000f90 <tmpfile@plt>:
     f90:	ff 25 ea 30 20 00    	jmpq   *0x2030ea(%rip)        # 204080 <tmpfile@GLIBC_2.2.5>
     f96:	68 0d 00 00 00       	pushq  $0xd
     f9b:	e9 10 ff ff ff       	jmpq   eb0 <.plt>

0000000000000fa0 <signal@plt>:
     fa0:	ff 25 e2 30 20 00    	jmpq   *0x2030e2(%rip)        # 204088 <signal@GLIBC_2.2.5>
     fa6:	68 0e 00 00 00       	pushq  $0xe
     fab:	e9 00 ff ff ff       	jmpq   eb0 <.plt>

0000000000000fb0 <gethostbyname@plt>:
     fb0:	ff 25 da 30 20 00    	jmpq   *0x2030da(%rip)        # 204090 <gethostbyname@GLIBC_2.2.5>
     fb6:	68 0f 00 00 00       	pushq  $0xf
     fbb:	e9 f0 fe ff ff       	jmpq   eb0 <.plt>

0000000000000fc0 <fprintf@plt>:
     fc0:	ff 25 d2 30 20 00    	jmpq   *0x2030d2(%rip)        # 204098 <fprintf@GLIBC_2.2.5>
     fc6:	68 10 00 00 00       	pushq  $0x10
     fcb:	e9 e0 fe ff ff       	jmpq   eb0 <.plt>

0000000000000fd0 <strtol@plt>:
     fd0:	ff 25 ca 30 20 00    	jmpq   *0x2030ca(%rip)        # 2040a0 <strtol@GLIBC_2.2.5>
     fd6:	68 11 00 00 00       	pushq  $0x11
     fdb:	e9 d0 fe ff ff       	jmpq   eb0 <.plt>

0000000000000fe0 <inet_pton@plt>:
     fe0:	ff 25 c2 30 20 00    	jmpq   *0x2030c2(%rip)        # 2040a8 <inet_pton@GLIBC_2.2.5>
     fe6:	68 12 00 00 00       	pushq  $0x12
     feb:	e9 c0 fe ff ff       	jmpq   eb0 <.plt>

0000000000000ff0 <fflush@plt>:
     ff0:	ff 25 ba 30 20 00    	jmpq   *0x2030ba(%rip)        # 2040b0 <fflush@GLIBC_2.2.5>
     ff6:	68 13 00 00 00       	pushq  $0x13
     ffb:	e9 b0 fe ff ff       	jmpq   eb0 <.plt>

0000000000001000 <__isoc99_sscanf@plt>:
    1000:	ff 25 b2 30 20 00    	jmpq   *0x2030b2(%rip)        # 2040b8 <__isoc99_sscanf@GLIBC_2.7>
    1006:	68 14 00 00 00       	pushq  $0x14
    100b:	e9 a0 fe ff ff       	jmpq   eb0 <.plt>

0000000000001010 <bcopy@plt>:
    1010:	ff 25 aa 30 20 00    	jmpq   *0x2030aa(%rip)        # 2040c0 <bcopy@GLIBC_2.2.5>
    1016:	68 15 00 00 00       	pushq  $0x15
    101b:	e9 90 fe ff ff       	jmpq   eb0 <.plt>

0000000000001020 <cuserid@plt>:
    1020:	ff 25 a2 30 20 00    	jmpq   *0x2030a2(%rip)        # 2040c8 <cuserid@GLIBC_2.2.5>
    1026:	68 16 00 00 00       	pushq  $0x16
    102b:	e9 80 fe ff ff       	jmpq   eb0 <.plt>

0000000000001030 <fopen@plt>:
    1030:	ff 25 9a 30 20 00    	jmpq   *0x20309a(%rip)        # 2040d0 <fopen@GLIBC_2.2.5>
    1036:	68 17 00 00 00       	pushq  $0x17
    103b:	e9 70 fe ff ff       	jmpq   eb0 <.plt>

0000000000001040 <strcat@plt>:
    1040:	ff 25 92 30 20 00    	jmpq   *0x203092(%rip)        # 2040d8 <strcat@GLIBC_2.2.5>
    1046:	68 18 00 00 00       	pushq  $0x18
    104b:	e9 60 fe ff ff       	jmpq   eb0 <.plt>

0000000000001050 <sprintf@plt>:
    1050:	ff 25 8a 30 20 00    	jmpq   *0x20308a(%rip)        # 2040e0 <sprintf@GLIBC_2.2.5>
    1056:	68 19 00 00 00       	pushq  $0x19
    105b:	e9 50 fe ff ff       	jmpq   eb0 <.plt>

0000000000001060 <exit@plt>:
    1060:	ff 25 82 30 20 00    	jmpq   *0x203082(%rip)        # 2040e8 <exit@GLIBC_2.2.5>
    1066:	68 1a 00 00 00       	pushq  $0x1a
    106b:	e9 40 fe ff ff       	jmpq   eb0 <.plt>

0000000000001070 <connect@plt>:
    1070:	ff 25 7a 30 20 00    	jmpq   *0x20307a(%rip)        # 2040f0 <connect@GLIBC_2.2.5>
    1076:	68 1b 00 00 00       	pushq  $0x1b
    107b:	e9 30 fe ff ff       	jmpq   eb0 <.plt>

0000000000001080 <fwrite@plt>:
    1080:	ff 25 72 30 20 00    	jmpq   *0x203072(%rip)        # 2040f8 <fwrite@GLIBC_2.2.5>
    1086:	68 1c 00 00 00       	pushq  $0x1c
    108b:	e9 20 fe ff ff       	jmpq   eb0 <.plt>

0000000000001090 <sleep@plt>:
    1090:	ff 25 6a 30 20 00    	jmpq   *0x20306a(%rip)        # 204100 <sleep@GLIBC_2.2.5>
    1096:	68 1d 00 00 00       	pushq  $0x1d
    109b:	e9 10 fe ff ff       	jmpq   eb0 <.plt>

00000000000010a0 <__ctype_b_loc@plt>:
    10a0:	ff 25 62 30 20 00    	jmpq   *0x203062(%rip)        # 204108 <__ctype_b_loc@GLIBC_2.3>
    10a6:	68 1e 00 00 00       	pushq  $0x1e
    10ab:	e9 00 fe ff ff       	jmpq   eb0 <.plt>

00000000000010b0 <socket@plt>:
    10b0:	ff 25 5a 30 20 00    	jmpq   *0x20305a(%rip)        # 204110 <socket@GLIBC_2.2.5>
    10b6:	68 1f 00 00 00       	pushq  $0x1f
    10bb:	e9 f0 fd ff ff       	jmpq   eb0 <.plt>

Disassembly of section .plt.got:

00000000000010c0 <__cxa_finalize@plt>:
    10c0:	ff 25 32 2f 20 00    	jmpq   *0x202f32(%rip)        # 203ff8 <__cxa_finalize@GLIBC_2.2.5>
    10c6:	66 90                	xchg   %ax,%ax

Disassembly of section .text:

00000000000010d0 <_start>:
    10d0:	31 ed                	xor    %ebp,%ebp
    10d2:	49 89 d1             	mov    %rdx,%r9
    10d5:	5e                   	pop    %rsi
    10d6:	48 89 e2             	mov    %rsp,%rdx
    10d9:	48 83 e4 f0          	and    $0xfffffffffffffff0,%rsp
    10dd:	50                   	push   %rax
    10de:	54                   	push   %rsp
    10df:	4c 8d 05 ca 11 00 00 	lea    0x11ca(%rip),%r8        # 22b0 <__libc_csu_fini>
    10e6:	48 8d 0d 53 11 00 00 	lea    0x1153(%rip),%rcx        # 2240 <__libc_csu_init>
    10ed:	48 8d 3d 0c 01 00 00 	lea    0x10c(%rip),%rdi        # 1200 <main>
    10f4:	ff 15 de 2e 20 00    	callq  *0x202ede(%rip)        # 203fd8 <__libc_start_main@GLIBC_2.2.5>
    10fa:	f4                   	hlt    
    10fb:	0f 1f 44 00 00       	nopl   0x0(%rax,%rax,1)

0000000000001100 <deregister_tm_clones>:
    1100:	48 8d 3d 99 36 20 00 	lea    0x203699(%rip),%rdi        # 2047a0 <stdout@@GLIBC_2.2.5>
    1107:	48 8d 05 99 36 20 00 	lea    0x203699(%rip),%rax        # 2047a7 <__TMC_END__+0x7>
    110e:	55                   	push   %rbp
    110f:	48 29 f8             	sub    %rdi,%rax
    1112:	48 89 e5             	mov    %rsp,%rbp
    1115:	48 83 f8 0e          	cmp    $0xe,%rax
    1119:	76 15                	jbe    1130 <deregister_tm_clones+0x30>
    111b:	48 8b 05 ae 2e 20 00 	mov    0x202eae(%rip),%rax        # 203fd0 <_ITM_deregisterTMCloneTable>
    1122:	48 85 c0             	test   %rax,%rax
    1125:	74 09                	je     1130 <deregister_tm_clones+0x30>
    1127:	5d                   	pop    %rbp
    1128:	ff e0                	jmpq   *%rax
    112a:	66 0f 1f 44 00 00    	nopw   0x0(%rax,%rax,1)
    1130:	5d                   	pop    %rbp
    1131:	c3                   	retq   
    1132:	0f 1f 40 00          	nopl   0x0(%rax)
    1136:	66 2e 0f 1f 84 00 00 	nopw   %cs:0x0(%rax,%rax,1)
    113d:	00 00 00 

0000000000001140 <register_tm_clones>:
    1140:	48 8d 3d 59 36 20 00 	lea    0x203659(%rip),%rdi        # 2047a0 <stdout@@GLIBC_2.2.5>
    1147:	48 8d 35 52 36 20 00 	lea    0x203652(%rip),%rsi        # 2047a0 <stdout@@GLIBC_2.2.5>
    114e:	55                   	push   %rbp
    114f:	48 29 fe             	sub    %rdi,%rsi
    1152:	48 89 e5             	mov    %rsp,%rbp
    1155:	48 c1 fe 03          	sar    $0x3,%rsi
    1159:	48 89 f0             	mov    %rsi,%rax
    115c:	48 c1 e8 3f          	shr    $0x3f,%rax
    1160:	48 01 c6             	add    %rax,%rsi
    1163:	48 d1 fe             	sar    %rsi
    1166:	74 18                	je     1180 <register_tm_clones+0x40>
    1168:	48 8b 05 81 2e 20 00 	mov    0x202e81(%rip),%rax        # 203ff0 <_ITM_registerTMCloneTable>
    116f:	48 85 c0             	test   %rax,%rax
    1172:	74 0c                	je     1180 <register_tm_clones+0x40>
    1174:	5d                   	pop    %rbp
    1175:	ff e0                	jmpq   *%rax
    1177:	66 0f 1f 84 00 00 00 	nopw   0x0(%rax,%rax,1)
    117e:	00 00 
    1180:	5d                   	pop    %rbp
    1181:	c3                   	retq   
    1182:	0f 1f 40 00          	nopl   0x0(%rax)
    1186:	66 2e 0f 1f 84 00 00 	nopw   %cs:0x0(%rax,%rax,1)
    118d:	00 00 00 

0000000000001190 <__do_global_dtors_aux>:
    1190:	80 3d 21 36 20 00 00 	cmpb   $0x0,0x203621(%rip)        # 2047b8 <completed.6972>
    1197:	75 27                	jne    11c0 <__do_global_dtors_aux+0x30>
    1199:	48 83 3d 57 2e 20 00 	cmpq   $0x0,0x202e57(%rip)        # 203ff8 <__cxa_finalize@GLIBC_2.2.5>
    11a0:	00 
    11a1:	55                   	push   %rbp
    11a2:	48 89 e5             	mov    %rsp,%rbp
    11a5:	74 0c                	je     11b3 <__do_global_dtors_aux+0x23>
    11a7:	48 8b 3d 7a 2f 20 00 	mov    0x202f7a(%rip),%rdi        # 204128 <__dso_handle>
    11ae:	e8 0d ff ff ff       	callq  10c0 <__cxa_finalize@plt>
    11b3:	e8 48 ff ff ff       	callq  1100 <deregister_tm_clones>
    11b8:	5d                   	pop    %rbp
    11b9:	c6 05 f8 35 20 00 01 	movb   $0x1,0x2035f8(%rip)        # 2047b8 <completed.6972>
    11c0:	f3 c3                	repz retq 
    11c2:	0f 1f 40 00          	nopl   0x0(%rax)
    11c6:	66 2e 0f 1f 84 00 00 	nopw   %cs:0x0(%rax,%rax,1)
    11cd:	00 00 00 

00000000000011d0 <frame_dummy>:
    11d0:	48 8d 3d 11 2c 20 00 	lea    0x202c11(%rip),%rdi        # 203de8 <__JCR_END__>
    11d7:	48 83 3f 00          	cmpq   $0x0,(%rdi)
    11db:	75 0b                	jne    11e8 <frame_dummy+0x18>
    11dd:	e9 5e ff ff ff       	jmpq   1140 <register_tm_clones>
    11e2:	66 0f 1f 44 00 00    	nopw   0x0(%rax,%rax,1)
    11e8:	48 8b 05 f9 2d 20 00 	mov    0x202df9(%rip),%rax        # 203fe8 <_Jv_RegisterClasses>
    11ef:	48 85 c0             	test   %rax,%rax
    11f2:	74 e9                	je     11dd <frame_dummy+0xd>
    11f4:	55                   	push   %rbp
    11f5:	48 89 e5             	mov    %rsp,%rbp
    11f8:	ff d0                	callq  *%rax
    11fa:	5d                   	pop    %rbp
    11fb:	e9 40 ff ff ff       	jmpq   1140 <register_tm_clones>

0000000000001200 <main>:
    1200:	53                   	push   %rbx
    1201:	83 ff 01             	cmp    $0x1,%edi
    1204:	0f 84 f8 00 00 00    	je     1302 <main+0x102>
    120a:	48 89 f3             	mov    %rsi,%rbx
    120d:	83 ff 02             	cmp    $0x2,%edi
    1210:	0f 85 1c 01 00 00    	jne    1332 <main+0x132>
    1216:	48 8b 7e 08          	mov    0x8(%rsi),%rdi
    121a:	48 8d 35 d9 14 00 00 	lea    0x14d9(%rip),%rsi        # 26fa <array.3090+0x25a>
    1221:	e8 0a fe ff ff       	callq  1030 <fopen@plt>
    1226:	48 89 05 93 35 20 00 	mov    %rax,0x203593(%rip)        # 2047c0 <infile>
    122d:	48 85 c0             	test   %rax,%rax
    1230:	0f 84 df 00 00 00    	je     1315 <main+0x115>
    1236:	e8 0f 07 00 00       	callq  194a <initialize_bomb>
    123b:	48 8d 3d 06 11 00 00 	lea    0x1106(%rip),%rdi        # 2348 <_IO_stdin_used+0x88>
    1242:	e8 a9 fc ff ff       	callq  ef0 <puts@plt>
    1247:	48 8d 3d 3a 11 00 00 	lea    0x113a(%rip),%rdi        # 2388 <_IO_stdin_used+0xc8>
    124e:	e8 9d fc ff ff       	callq  ef0 <puts@plt>
    1253:	e8 4d 0e 00 00       	callq  20a5 <read_line>
    1258:	48 89 c7             	mov    %rax,%rdi
    125b:	e8 f0 00 00 00       	callq  1350 <phase_1>
    1260:	e8 41 0f 00 00       	callq  21a6 <phase_defused>
    1265:	48 8d 3d 4c 11 00 00 	lea    0x114c(%rip),%rdi        # 23b8 <_IO_stdin_used+0xf8>
    126c:	e8 7f fc ff ff       	callq  ef0 <puts@plt>
    1271:	e8 2f 0e 00 00       	callq  20a5 <read_line>
    1276:	48 89 c7             	mov    %rax,%rdi
    1279:	e8 f2 00 00 00       	callq  1370 <phase_2>
    127e:	e8 23 0f 00 00       	callq  21a6 <phase_defused>
    1283:	48 8d 3d 71 10 00 00 	lea    0x1071(%rip),%rdi        # 22fb <_IO_stdin_used+0x3b>
    128a:	e8 61 fc ff ff       	callq  ef0 <puts@plt>
    128f:	e8 11 0e 00 00       	callq  20a5 <read_line>
    1294:	48 89 c7             	mov    %rax,%rdi
    1297:	e8 2b 01 00 00       	callq  13c7 <phase_3>
    129c:	e8 05 0f 00 00       	callq  21a6 <phase_defused>
    12a1:	48 8d 3d 71 10 00 00 	lea    0x1071(%rip),%rdi        # 2319 <_IO_stdin_used+0x59>
    12a8:	e8 43 fc ff ff       	callq  ef0 <puts@plt>
    12ad:	e8 f3 0d 00 00       	callq  20a5 <read_line>
    12b2:	48 89 c7             	mov    %rax,%rdi
    12b5:	e8 8b 02 00 00       	callq  1545 <phase_4>
    12ba:	e8 e7 0e 00 00       	callq  21a6 <phase_defused>
    12bf:	48 8d 3d 22 11 00 00 	lea    0x1122(%rip),%rdi        # 23e8 <_IO_stdin_used+0x128>
    12c6:	e8 25 fc ff ff       	callq  ef0 <puts@plt>
    12cb:	e8 d5 0d 00 00       	callq  20a5 <read_line>
    12d0:	48 89 c7             	mov    %rax,%rdi
    12d3:	e8 b2 02 00 00       	callq  158a <phase_5>
    12d8:	e8 c9 0e 00 00       	callq  21a6 <phase_defused>
    12dd:	48 8d 3d 44 10 00 00 	lea    0x1044(%rip),%rdi        # 2328 <_IO_stdin_used+0x68>
    12e4:	e8 07 fc ff ff       	callq  ef0 <puts@plt>
    12e9:	e8 b7 0d 00 00       	callq  20a5 <read_line>
    12ee:	48 89 c7             	mov    %rax,%rdi
    12f1:	e8 0c 03 00 00       	callq  1602 <phase_6>
    12f6:	e8 ab 0e 00 00       	callq  21a6 <phase_defused>
    12fb:	b8 00 00 00 00       	mov    $0x0,%eax
    1300:	5b                   	pop    %rbx
    1301:	c3                   	retq   
    1302:	48 8b 05 a7 34 20 00 	mov    0x2034a7(%rip),%rax        # 2047b0 <stdin@@GLIBC_2.2.5>
    1309:	48 89 05 b0 34 20 00 	mov    %rax,0x2034b0(%rip)        # 2047c0 <infile>
    1310:	e9 21 ff ff ff       	jmpq   1236 <main+0x36>
    1315:	48 8b 53 08          	mov    0x8(%rbx),%rdx
    1319:	48 8b 33             	mov    (%rbx),%rsi
    131c:	48 8d 3d a1 0f 00 00 	lea    0xfa1(%rip),%rdi        # 22c4 <_IO_stdin_used+0x4>
    1323:	e8 08 fc ff ff       	callq  f30 <printf@plt>
    1328:	bf 08 00 00 00       	mov    $0x8,%edi
    132d:	e8 2e fd ff ff       	callq  1060 <exit@plt>
    1332:	48 8b 36             	mov    (%rsi),%rsi
    1335:	48 8d 3d a5 0f 00 00 	lea    0xfa5(%rip),%rdi        # 22e1 <_IO_stdin_used+0x21>
    133c:	b8 00 00 00 00       	mov    $0x0,%eax
    1341:	e8 ea fb ff ff       	callq  f30 <printf@plt>
    1346:	bf 08 00 00 00       	mov    $0x8,%edi
    134b:	e8 10 fd ff ff       	callq  1060 <exit@plt>

0000000000001350 <phase_1>:
    1350:	48 83 ec 08          	sub    $0x8,%rsp
    1354:	48 8d 35 b5 10 00 00 	lea    0x10b5(%rip),%rsi        # 2410 <_IO_stdin_used+0x150>
    135b:	e8 b8 04 00 00       	callq  1818 <strings_not_equal>
    1360:	85 c0                	test   %eax,%eax
    1362:	75 05                	jne    1369 <phase_1+0x19>
    1364:	48 83 c4 08          	add    $0x8,%rsp
    1368:	c3                   	retq   
    1369:	e8 ba 0c 00 00       	callq  2028 <explode_bomb>
    136e:	eb f4                	jmp    1364 <phase_1+0x14>

0000000000001370 <phase_2>:
    1370:	41 55                	push   %r13
    1372:	41 54                	push   %r12
    1374:	55                   	push   %rbp
    1375:	53                   	push   %rbx
    1376:	48 83 ec 28          	sub    $0x28,%rsp
    137a:	49 89 e4             	mov    %rsp,%r12
    137d:	48 89 e6             	mov    %rsp,%rsi
    1380:	e8 df 0c 00 00       	callq  2064 <read_six_numbers>
    1385:	48 89 e3             	mov    %rsp,%rbx
    1388:	49 83 c4 0c          	add    $0xc,%r12
    138c:	bd 00 00 00 00       	mov    $0x0,%ebp
    1391:	eb 0d                	jmp    13a0 <phase_2+0x30>
    1393:	41 03 6d 00          	add    0x0(%r13),%ebp
    1397:	48 83 c3 04          	add    $0x4,%rbx
    139b:	4c 39 e3             	cmp    %r12,%rbx
    139e:	74 11                	je     13b1 <phase_2+0x41>
    13a0:	49 89 dd             	mov    %rbx,%r13
    13a3:	8b 43 0c             	mov    0xc(%rbx),%eax
    13a6:	39 03                	cmp    %eax,(%rbx)
    13a8:	74 e9                	je     1393 <phase_2+0x23>
    13aa:	e8 79 0c 00 00       	callq  2028 <explode_bomb>
    13af:	eb e2                	jmp    1393 <phase_2+0x23>
    13b1:	85 ed                	test   %ebp,%ebp
    13b3:	74 0b                	je     13c0 <phase_2+0x50>
    13b5:	48 83 c4 28          	add    $0x28,%rsp
    13b9:	5b                   	pop    %rbx
    13ba:	5d                   	pop    %rbp
    13bb:	41 5c                	pop    %r12
    13bd:	41 5d                	pop    %r13
    13bf:	c3                   	retq   
    13c0:	e8 63 0c 00 00       	callq  2028 <explode_bomb>
    13c5:	eb ee                	jmp    13b5 <phase_2+0x45>

00000000000013c7 <phase_3>:
    13c7:	48 83 ec 18          	sub    $0x18,%rsp
    13cb:	48 8d 4c 24 07       	lea    0x7(%rsp),%rcx
    13d0:	48 8d 54 24 0c       	lea    0xc(%rsp),%rdx
    13d5:	4c 8d 44 24 08       	lea    0x8(%rsp),%r8
    13da:	48 8d 35 85 10 00 00 	lea    0x1085(%rip),%rsi        # 2466 <_IO_stdin_used+0x1a6>
    13e1:	b8 00 00 00 00       	mov    $0x0,%eax
    13e6:	e8 15 fc ff ff       	callq  1000 <__isoc99_sscanf@plt>
    13eb:	83 f8 02             	cmp    $0x2,%eax
    13ee:	7e 1f                	jle    140f <phase_3+0x48>
    13f0:	83 7c 24 0c 07       	cmpl   $0x7,0xc(%rsp)
    13f5:	0f 87 02 01 00 00    	ja     14fd <phase_3+0x136>
    13fb:	8b 44 24 0c          	mov    0xc(%rsp),%eax
    13ff:	48 8d 15 7a 10 00 00 	lea    0x107a(%rip),%rdx        # 2480 <_IO_stdin_used+0x1c0>
    1406:	48 63 04 82          	movslq (%rdx,%rax,4),%rax
    140a:	48 01 d0             	add    %rdx,%rax
    140d:	ff e0                	jmpq   *%rax
    140f:	e8 14 0c 00 00       	callq  2028 <explode_bomb>
    1414:	eb da                	jmp    13f0 <phase_3+0x29>
    1416:	b8 6a 00 00 00       	mov    $0x6a,%eax
    141b:	81 7c 24 08 c6 00 00 	cmpl   $0xc6,0x8(%rsp)
    1422:	00 
    1423:	0f 84 de 00 00 00    	je     1507 <phase_3+0x140>
    1429:	e8 fa 0b 00 00       	callq  2028 <explode_bomb>
    142e:	b8 6a 00 00 00       	mov    $0x6a,%eax
    1433:	e9 cf 00 00 00       	jmpq   1507 <phase_3+0x140>
    1438:	b8 63 00 00 00       	mov    $0x63,%eax
    143d:	81 7c 24 08 1f 03 00 	cmpl   $0x31f,0x8(%rsp)
    1444:	00 
    1445:	0f 84 bc 00 00 00    	je     1507 <phase_3+0x140>
    144b:	e8 d8 0b 00 00       	callq  2028 <explode_bomb>
    1450:	b8 63 00 00 00       	mov    $0x63,%eax
    1455:	e9 ad 00 00 00       	jmpq   1507 <phase_3+0x140>
    145a:	b8 73 00 00 00       	mov    $0x73,%eax
    145f:	81 7c 24 08 f8 02 00 	cmpl   $0x2f8,0x8(%rsp)
    1466:	00 
    1467:	0f 84 9a 00 00 00    	je     1507 <phase_3+0x140>
    146d:	e8 b6 0b 00 00       	callq  2028 <explode_bomb>
    1472:	b8 73 00 00 00       	mov    $0x73,%eax
    1477:	e9 8b 00 00 00       	jmpq   1507 <phase_3+0x140>
    147c:	b8 74 00 00 00       	mov    $0x74,%eax
    1481:	83 7c 24 08 4b       	cmpl   $0x4b,0x8(%rsp)
    1486:	74 7f                	je     1507 <phase_3+0x140>
    1488:	e8 9b 0b 00 00       	callq  2028 <explode_bomb>
    148d:	b8 74 00 00 00       	mov    $0x74,%eax
    1492:	eb 73                	jmp    1507 <phase_3+0x140>
    1494:	b8 65 00 00 00       	mov    $0x65,%eax
    1499:	83 7c 24 08 5c       	cmpl   $0x5c,0x8(%rsp)
    149e:	74 67                	je     1507 <phase_3+0x140>
    14a0:	e8 83 0b 00 00       	callq  2028 <explode_bomb>
    14a5:	b8 65 00 00 00       	mov    $0x65,%eax
    14aa:	eb 5b                	jmp    1507 <phase_3+0x140>
    14ac:	b8 64 00 00 00       	mov    $0x64,%eax
    14b1:	81 7c 24 08 40 02 00 	cmpl   $0x240,0x8(%rsp)
    14b8:	00 
    14b9:	74 4c                	je     1507 <phase_3+0x140>
    14bb:	e8 68 0b 00 00       	callq  2028 <explode_bomb>
    14c0:	b8 64 00 00 00       	mov    $0x64,%eax
    14c5:	eb 40                	jmp    1507 <phase_3+0x140>
    14c7:	b8 62 00 00 00       	mov    $0x62,%eax
    14cc:	81 7c 24 08 aa 01 00 	cmpl   $0x1aa,0x8(%rsp)
    14d3:	00 
    14d4:	74 31                	je     1507 <phase_3+0x140>
    14d6:	e8 4d 0b 00 00       	callq  2028 <explode_bomb>
    14db:	b8 62 00 00 00       	mov    $0x62,%eax
    14e0:	eb 25                	jmp    1507 <phase_3+0x140>
    14e2:	b8 71 00 00 00       	mov    $0x71,%eax
    14e7:	81 7c 24 08 03 03 00 	cmpl   $0x303,0x8(%rsp)
    14ee:	00 
    14ef:	74 16                	je     1507 <phase_3+0x140>
    14f1:	e8 32 0b 00 00       	callq  2028 <explode_bomb>
    14f6:	b8 71 00 00 00       	mov    $0x71,%eax
    14fb:	eb 0a                	jmp    1507 <phase_3+0x140>
    14fd:	e8 26 0b 00 00       	callq  2028 <explode_bomb>
    1502:	b8 71 00 00 00       	mov    $0x71,%eax
    1507:	3a 44 24 07          	cmp    0x7(%rsp),%al
    150b:	74 05                	je     1512 <phase_3+0x14b>
    150d:	e8 16 0b 00 00       	callq  2028 <explode_bomb>
    1512:	48 83 c4 18          	add    $0x18,%rsp
    1516:	c3                   	retq   

0000000000001517 <func4>:
    1517:	b8 01 00 00 00       	mov    $0x1,%eax
    151c:	83 ff 01             	cmp    $0x1,%edi
    151f:	7e 22                	jle    1543 <func4+0x2c>
    1521:	55                   	push   %rbp
    1522:	53                   	push   %rbx
    1523:	48 83 ec 08          	sub    $0x8,%rsp
    1527:	89 fb                	mov    %edi,%ebx
    1529:	8d 7f ff             	lea    -0x1(%rdi),%edi
    152c:	e8 e6 ff ff ff       	callq  1517 <func4>
    1531:	89 c5                	mov    %eax,%ebp
    1533:	8d 7b fe             	lea    -0x2(%rbx),%edi
    1536:	e8 dc ff ff ff       	callq  1517 <func4>
    153b:	01 e8                	add    %ebp,%eax
    153d:	48 83 c4 08          	add    $0x8,%rsp
    1541:	5b                   	pop    %rbx
    1542:	5d                   	pop    %rbp
    1543:	f3 c3                	repz retq 

0000000000001545 <phase_4>:
    1545:	48 83 ec 18          	sub    $0x18,%rsp
    1549:	48 8d 54 24 0c       	lea    0xc(%rsp),%rdx
    154e:	48 8d 35 17 0f 00 00 	lea    0xf17(%rip),%rsi        # 246c <_IO_stdin_used+0x1ac>
    1555:	b8 00 00 00 00       	mov    $0x0,%eax
    155a:	e8 a1 fa ff ff       	callq  1000 <__isoc99_sscanf@plt>
    155f:	83 f8 01             	cmp    $0x1,%eax
    1562:	74 1d                	je     1581 <phase_4+0x3c>
    1564:	e8 bf 0a 00 00       	callq  2028 <explode_bomb>
    1569:	8b 7c 24 0c          	mov    0xc(%rsp),%edi
    156d:	e8 a5 ff ff ff       	callq  1517 <func4>
    1572:	83 f8 59             	cmp    $0x59,%eax
    1575:	74 05                	je     157c <phase_4+0x37>
    1577:	e8 ac 0a 00 00       	callq  2028 <explode_bomb>
    157c:	48 83 c4 18          	add    $0x18,%rsp
    1580:	c3                   	retq   
    1581:	83 7c 24 0c 00       	cmpl   $0x0,0xc(%rsp)
    1586:	7f e1                	jg     1569 <phase_4+0x24>
    1588:	eb da                	jmp    1564 <phase_4+0x1f>

000000000000158a <phase_5>:
    158a:	48 83 ec 18          	sub    $0x18,%rsp
    158e:	48 8d 4c 24 08       	lea    0x8(%rsp),%rcx
    1593:	48 8d 54 24 0c       	lea    0xc(%rsp),%rdx
    1598:	48 8d 35 64 12 00 00 	lea    0x1264(%rip),%rsi        # 2803 <array.3090+0x363>
    159f:	b8 00 00 00 00       	mov    $0x0,%eax
    15a4:	e8 57 fa ff ff       	callq  1000 <__isoc99_sscanf@plt>
    15a9:	83 f8 01             	cmp    $0x1,%eax  
    15ac:	7e 4d                	jle    15fb <phase_5+0x71>
    15ae:	8b 44 24 0c          	mov    0xc(%rsp),%eax
    15b2:	83 e0 0f             	and    $0xf,%eax
    15b5:	89 44 24 0c          	mov    %eax,0xc(%rsp)
    15b9:	83 f8 0f             	cmp    $0xf,%eax
    15bc:	74 33                	je     15f1 <phase_5+0x67>
    15be:	b9 00 00 00 00       	mov    $0x0,%ecx
    15c3:	ba 00 00 00 00       	mov    $0x0,%edx
    15c8:	48 8d 35 d1 0e 00 00 	lea    0xed1(%rip),%rsi        # 24a0 <array.3090>
    15cf:	83 c2 01             	add    $0x1,%edx
    15d2:	48 98                	cltq   
    15d4:	8b 04 86             	mov    (%rsi,%rax,4),%eax
    15d7:	01 c1                	add    %eax,%ecx
    15d9:	83 f8 0f             	cmp    $0xf,%eax
    15dc:	75 f1                	jne    15cf <phase_5+0x45>
    15de:	c7 44 24 0c 0f 00 00 	movl   $0xf,0xc(%rsp)
    15e5:	00 
    15e6:	83 fa 08             	cmp    $0x8,%edx
    15e9:	75 06                	jne    15f1 <phase_5+0x67>
    15eb:	3b 4c 24 08          	cmp    0x8(%rsp),%ecx
    15ef:	74 05                	je     15f6 <phase_5+0x6c>
    15f1:	e8 32 0a 00 00       	callq  2028 <explode_bomb>
    15f6:	48 83 c4 18          	add    $0x18,%rsp
    15fa:	c3                   	retq   
    15fb:	e8 28 0a 00 00       	callq  2028 <explode_bomb>
    1600:	eb ac                	jmp    15ae <phase_5+0x24>

0000000000001602 <phase_6>:
    1602:	41 55                	push   %r13
    1604:	41 54                	push   %r12
    1606:	55                   	push   %rbp
    1607:	53                   	push   %rbx
    1608:	48 83 ec 58          	sub    $0x58,%rsp
    160c:	4c 8d 64 24 30       	lea    0x30(%rsp),%r12
    1611:	4c 89 e6             	mov    %r12,%rsi
    1614:	e8 4b 0a 00 00       	callq  2064 <read_six_numbers>
    1619:	41 bd 00 00 00 00    	mov    $0x0,%r13d
    161f:	eb 25                	jmp    1646 <phase_6+0x44>
    1621:	41 83 c5 01          	add    $0x1,%r13d
    1625:	41 83 fd 06          	cmp    $0x6,%r13d
    1629:	74 38                	je     1663 <phase_6+0x61>
    162b:	44 89 eb             	mov    %r13d,%ebx
    162e:	48 63 c3             	movslq %ebx,%rax
    1631:	8b 44 84 30          	mov    0x30(%rsp,%rax,4),%eax
    1635:	39 45 00             	cmp    %eax,0x0(%rbp)
    1638:	74 22                	je     165c <phase_6+0x5a>
    163a:	83 c3 01             	add    $0x1,%ebx
    163d:	83 fb 05             	cmp    $0x5,%ebx
    1640:	7e ec                	jle    162e <phase_6+0x2c>
    1642:	49 83 c4 04          	add    $0x4,%r12
    1646:	4c 89 e5             	mov    %r12,%rbp
    1649:	41 8b 04 24          	mov    (%r12),%eax
    164d:	83 e8 01             	sub    $0x1,%eax
    1650:	83 f8 05             	cmp    $0x5,%eax
    1653:	76 cc                	jbe    1621 <phase_6+0x1f>
    1655:	e8 ce 09 00 00       	callq  2028 <explode_bomb>
    165a:	eb c5                	jmp    1621 <phase_6+0x1f>
    165c:	e8 c7 09 00 00       	callq  2028 <explode_bomb>
    1661:	eb d7                	jmp    163a <phase_6+0x38>
    1663:	be 00 00 00 00       	mov    $0x0,%esi
    1668:	8b 4c 34 30          	mov    0x30(%rsp,%rsi,1),%ecx
    166c:	b8 01 00 00 00       	mov    $0x1,%eax
    1671:	48 8d 15 d8 30 20 00 	lea    0x2030d8(%rip),%rdx        # 204750 <node1>
    1678:	83 f9 01             	cmp    $0x1,%ecx
    167b:	7e 0b                	jle    1688 <phase_6+0x86>
    167d:	48 8b 52 08          	mov    0x8(%rdx),%rdx
    1681:	83 c0 01             	add    $0x1,%eax
    1684:	39 c8                	cmp    %ecx,%eax
    1686:	75 f5                	jne    167d <phase_6+0x7b>
    1688:	48 89 14 74          	mov    %rdx,(%rsp,%rsi,2)
    168c:	48 83 c6 04          	add    $0x4,%rsi
    1690:	48 83 fe 18          	cmp    $0x18,%rsi
    1694:	75 d2                	jne    1668 <phase_6+0x66>
    1696:	48 8b 1c 24          	mov    (%rsp),%rbx
    169a:	48 89 e0             	mov    %rsp,%rax
    169d:	48 8d 74 24 28       	lea    0x28(%rsp),%rsi
    16a2:	48 89 d9             	mov    %rbx,%rcx
    16a5:	48 8b 50 08          	mov    0x8(%rax),%rdx
    16a9:	48 89 51 08          	mov    %rdx,0x8(%rcx)
    16ad:	48 83 c0 08          	add    $0x8,%rax
    16b1:	48 89 d1             	mov    %rdx,%rcx
    16b4:	48 39 c6             	cmp    %rax,%rsi
    16b7:	75 ec                	jne    16a5 <phase_6+0xa3>
    16b9:	48 c7 42 08 00 00 00 	movq   $0x0,0x8(%rdx)
    16c0:	00 
    16c1:	bd 05 00 00 00       	mov    $0x5,%ebp
    16c6:	eb 09                	jmp    16d1 <phase_6+0xcf>
    16c8:	48 8b 5b 08          	mov    0x8(%rbx),%rbx
    16cc:	83 ed 01             	sub    $0x1,%ebp
    16cf:	74 11                	je     16e2 <phase_6+0xe0>
    16d1:	48 8b 43 08          	mov    0x8(%rbx),%rax
    16d5:	8b 00                	mov    (%rax),%eax
    16d7:	39 03                	cmp    %eax,(%rbx)
    16d9:	7d ed                	jge    16c8 <phase_6+0xc6>
    16db:	e8 48 09 00 00       	callq  2028 <explode_bomb>
    16e0:	eb e6                	jmp    16c8 <phase_6+0xc6>
    16e2:	48 83 c4 58          	add    $0x58,%rsp
    16e6:	5b                   	pop    %rbx
    16e7:	5d                   	pop    %rbp
    16e8:	41 5c                	pop    %r12
    16ea:	41 5d                	pop    %r13
    16ec:	c3                   	retq   

00000000000016ed <fun7>:
    16ed:	48 85 ff             	test   %rdi,%rdi
    16f0:	74 32                	je     1724 <fun7+0x37>
    16f2:	48 83 ec 08          	sub    $0x8,%rsp
    16f6:	8b 17                	mov    (%rdi),%edx
    16f8:	39 f2                	cmp    %esi,%edx
    16fa:	7f 1b                	jg     1717 <fun7+0x2a>
    16fc:	b8 00 00 00 00       	mov    $0x0,%eax
    1701:	39 f2                	cmp    %esi,%edx
    1703:	74 0d                	je     1712 <fun7+0x25>
    1705:	48 8b 7f 10          	mov    0x10(%rdi),%rdi
    1709:	e8 df ff ff ff       	callq  16ed <fun7>
    170e:	8d 44 00 01          	lea    0x1(%rax,%rax,1),%eax
    1712:	48 83 c4 08          	add    $0x8,%rsp
    1716:	c3                   	retq   
    1717:	48 8b 7f 08          	mov    0x8(%rdi),%rdi
    171b:	e8 cd ff ff ff       	callq  16ed <fun7>
    1720:	01 c0                	add    %eax,%eax
    1722:	eb ee                	jmp    1712 <fun7+0x25>
    1724:	b8 ff ff ff ff       	mov    $0xffffffff,%eax
    1729:	c3                   	retq   

000000000000172a <secret_phase>:
    172a:	53                   	push   %rbx
    172b:	e8 75 09 00 00       	callq  20a5 <read_line>
    1730:	ba 0a 00 00 00       	mov    $0xa,%edx
    1735:	be 00 00 00 00       	mov    $0x0,%esi
    173a:	48 89 c7             	mov    %rax,%rdi
    173d:	e8 8e f8 ff ff       	callq  fd0 <strtol@plt>
    1742:	48 89 c3             	mov    %rax,%rbx
    1745:	8d 40 ff             	lea    -0x1(%rax),%eax
    1748:	3d e8 03 00 00       	cmp    $0x3e8,%eax
    174d:	77 2b                	ja     177a <secret_phase+0x50>
    174f:	89 de                	mov    %ebx,%esi
    1751:	48 8d 3d 18 2f 20 00 	lea    0x202f18(%rip),%rdi        # 204670 <n1>
    1758:	e8 90 ff ff ff       	callq  16ed <fun7>
    175d:	83 f8 02             	cmp    $0x2,%eax
    1760:	74 05                	je     1767 <secret_phase+0x3d>
    1762:	e8 c1 08 00 00       	callq  2028 <explode_bomb>  //!!!
    1767:	48 8d 3d d2 0c 00 00 	lea    0xcd2(%rip),%rdi        # 2440 <_IO_stdin_used+0x180>
    176e:	e8 7d f7 ff ff       	callq  ef0 <puts@plt>
    1773:	e8 2e 0a 00 00       	callq  21a6 <phase_defused>
    1778:	5b                   	pop    %rbx
    1779:	c3                   	retq   
    177a:	e8 a9 08 00 00       	callq  2028 <explode_bomb>  //!!!
    177f:	eb ce                	jmp    174f <secret_phase+0x25>

0000000000001781 <sig_handler>:
    1781:	48 83 ec 08          	sub    $0x8,%rsp
    1785:	48 8d 3d 54 0d 00 00 	lea    0xd54(%rip),%rdi        # 24e0 <array.3090+0x40>
    178c:	e8 5f f7 ff ff       	callq  ef0 <puts@plt>
    1791:	bf 03 00 00 00       	mov    $0x3,%edi
    1796:	e8 f5 f8 ff ff       	callq  1090 <sleep@plt>
    179b:	48 8d 3d 76 0e 00 00 	lea    0xe76(%rip),%rdi        # 2618 <array.3090+0x178>
    17a2:	b8 00 00 00 00       	mov    $0x0,%eax
    17a7:	e8 84 f7 ff ff       	callq  f30 <printf@plt>
    17ac:	48 8b 3d ed 2f 20 00 	mov    0x202fed(%rip),%rdi        # 2047a0 <stdout@@GLIBC_2.2.5>
    17b3:	e8 38 f8 ff ff       	callq  ff0 <fflush@plt>
    17b8:	bf 01 00 00 00       	mov    $0x1,%edi
    17bd:	e8 ce f8 ff ff       	callq  1090 <sleep@plt>
    17c2:	48 8d 3d 57 0e 00 00 	lea    0xe57(%rip),%rdi        # 2620 <array.3090+0x180>
    17c9:	e8 22 f7 ff ff       	callq  ef0 <puts@plt>
    17ce:	bf 10 00 00 00       	mov    $0x10,%edi
    17d3:	e8 88 f8 ff ff       	callq  1060 <exit@plt>

00000000000017d8 <invalid_phase>:
    17d8:	48 83 ec 08          	sub    $0x8,%rsp
    17dc:	48 89 fe             	mov    %rdi,%rsi
    17df:	48 8d 3d 42 0e 00 00 	lea    0xe42(%rip),%rdi        # 2628 <array.3090+0x188>
    17e6:	b8 00 00 00 00       	mov    $0x0,%eax
    17eb:	e8 40 f7 ff ff       	callq  f30 <printf@plt>
    17f0:	bf 08 00 00 00       	mov    $0x8,%edi
    17f5:	e8 66 f8 ff ff       	callq  1060 <exit@plt>

00000000000017fa <string_length>:
    17fa:	80 3f 00             	cmpb   $0x0,(%rdi)
    17fd:	74 13                	je     1812 <string_length+0x18>
    17ff:	b8 00 00 00 00       	mov    $0x0,%eax
    1804:	48 83 c7 01          	add    $0x1,%rdi
    1808:	83 c0 01             	add    $0x1,%eax
    180b:	80 3f 00             	cmpb   $0x0,(%rdi)
    180e:	75 f4                	jne    1804 <string_length+0xa>
    1810:	f3 c3                	repz retq 
    1812:	b8 00 00 00 00       	mov    $0x0,%eax
    1817:	c3                   	retq   

0000000000001818 <strings_not_equal>:
    1818:	41 54                	push   %r12
    181a:	55                   	push   %rbp
    181b:	53                   	push   %rbx
    181c:	48 89 fb             	mov    %rdi,%rbx
    181f:	48 89 f5             	mov    %rsi,%rbp
    1822:	e8 d3 ff ff ff       	callq  17fa <string_length>
    1827:	41 89 c4             	mov    %eax,%r12d
    182a:	48 89 ef             	mov    %rbp,%rdi
    182d:	e8 c8 ff ff ff       	callq  17fa <string_length>
    1832:	ba 01 00 00 00       	mov    $0x1,%edx
    1837:	41 39 c4             	cmp    %eax,%r12d
    183a:	74 07                	je     1843 <strings_not_equal+0x2b>
    183c:	89 d0                	mov    %edx,%eax
    183e:	5b                   	pop    %rbx
    183f:	5d                   	pop    %rbp
    1840:	41 5c                	pop    %r12
    1842:	c3                   	retq   
    1843:	0f b6 03             	movzbl (%rbx),%eax
    1846:	84 c0                	test   %al,%al
    1848:	74 27                	je     1871 <strings_not_equal+0x59>
    184a:	3a 45 00             	cmp    0x0(%rbp),%al
    184d:	75 29                	jne    1878 <strings_not_equal+0x60>
    184f:	48 83 c3 01          	add    $0x1,%rbx
    1853:	48 83 c5 01          	add    $0x1,%rbp
    1857:	0f b6 03             	movzbl (%rbx),%eax
    185a:	84 c0                	test   %al,%al
    185c:	74 0c                	je     186a <strings_not_equal+0x52>
    185e:	3a 45 00             	cmp    0x0(%rbp),%al
    1861:	74 ec                	je     184f <strings_not_equal+0x37>
    1863:	ba 01 00 00 00       	mov    $0x1,%edx
    1868:	eb d2                	jmp    183c <strings_not_equal+0x24>
    186a:	ba 00 00 00 00       	mov    $0x0,%edx
    186f:	eb cb                	jmp    183c <strings_not_equal+0x24>
    1871:	ba 00 00 00 00       	mov    $0x0,%edx
    1876:	eb c4                	jmp    183c <strings_not_equal+0x24>
    1878:	ba 01 00 00 00       	mov    $0x1,%edx
    187d:	eb bd                	jmp    183c <strings_not_equal+0x24>

000000000000187f <open_clientfd>:
    187f:	41 54                	push   %r12
    1881:	55                   	push   %rbp
    1882:	53                   	push   %rbx
    1883:	48 83 ec 10          	sub    $0x10,%rsp
    1887:	49 89 fc             	mov    %rdi,%r12
    188a:	89 f3                	mov    %esi,%ebx
    188c:	ba 00 00 00 00       	mov    $0x0,%edx
    1891:	be 01 00 00 00       	mov    $0x1,%esi
    1896:	bf 02 00 00 00       	mov    $0x2,%edi
    189b:	e8 10 f8 ff ff       	callq  10b0 <socket@plt>
    18a0:	85 c0                	test   %eax,%eax
    18a2:	78 64                	js     1908 <open_clientfd+0x89>
    18a4:	89 c5                	mov    %eax,%ebp
    18a6:	4c 89 e7             	mov    %r12,%rdi
    18a9:	e8 02 f7 ff ff       	callq  fb0 <gethostbyname@plt>
    18ae:	48 85 c0             	test   %rax,%rax
    18b1:	74 6b                	je     191e <open_clientfd+0x9f>
    18b3:	48 c7 04 24 00 00 00 	movq   $0x0,(%rsp)
    18ba:	00 
    18bb:	48 c7 44 24 08 00 00 	movq   $0x0,0x8(%rsp)
    18c2:	00 00 
    18c4:	66 c7 04 24 02 00    	movw   $0x2,(%rsp)
    18ca:	48 63 50 14          	movslq 0x14(%rax),%rdx
    18ce:	48 8d 74 24 04       	lea    0x4(%rsp),%rsi
    18d3:	48 8b 40 18          	mov    0x18(%rax),%rax
    18d7:	48 8b 38             	mov    (%rax),%rdi
    18da:	e8 31 f7 ff ff       	callq  1010 <bcopy@plt>
    18df:	89 de                	mov    %ebx,%esi
    18e1:	66 c1 ce 08          	ror    $0x8,%si
    18e5:	66 89 74 24 02       	mov    %si,0x2(%rsp)
    18ea:	ba 10 00 00 00       	mov    $0x10,%edx
    18ef:	48 89 e6             	mov    %rsp,%rsi
    18f2:	89 ef                	mov    %ebp,%edi
    18f4:	e8 77 f7 ff ff       	callq  1070 <connect@plt>
    18f9:	85 c0                	test   %eax,%eax
    18fb:	78 37                	js     1934 <open_clientfd+0xb5>
    18fd:	89 e8                	mov    %ebp,%eax
    18ff:	48 83 c4 10          	add    $0x10,%rsp
    1903:	5b                   	pop    %rbx
    1904:	5d                   	pop    %rbp
    1905:	41 5c                	pop    %r12
    1907:	c3                   	retq   
    1908:	48 8d 3d 2a 0d 00 00 	lea    0xd2a(%rip),%rdi        # 2639 <array.3090+0x199>
    190f:	e8 dc f5 ff ff       	callq  ef0 <puts@plt>
    1914:	bf 08 00 00 00       	mov    $0x8,%edi
    1919:	e8 42 f7 ff ff       	callq  1060 <exit@plt>
    191e:	48 8d 3d 22 0d 00 00 	lea    0xd22(%rip),%rdi        # 2647 <array.3090+0x1a7>
    1925:	e8 c6 f5 ff ff       	callq  ef0 <puts@plt>
    192a:	bf 08 00 00 00       	mov    $0x8,%edi
    192f:	e8 2c f7 ff ff       	callq  1060 <exit@plt>
    1934:	48 8d 3d 1a 0d 00 00 	lea    0xd1a(%rip),%rdi        # 2655 <array.3090+0x1b5>
    193b:	e8 b0 f5 ff ff       	callq  ef0 <puts@plt>
    1940:	bf 08 00 00 00       	mov    $0x8,%edi
    1945:	e8 16 f7 ff ff       	callq  1060 <exit@plt>

000000000000194a <initialize_bomb>:
    194a:	48 83 ec 08          	sub    $0x8,%rsp
    194e:	48 8d 35 2c fe ff ff 	lea    -0x1d4(%rip),%rsi        # 1781 <sig_handler>
    1955:	bf 02 00 00 00       	mov    $0x2,%edi
    195a:	e8 41 f6 ff ff       	callq  fa0 <signal@plt>
    195f:	be 50 00 00 00       	mov    $0x50,%esi
    1964:	48 8d 3d f8 0c 00 00 	lea    0xcf8(%rip),%rdi        # 2663 <array.3090+0x1c3>
    196b:	e8 0f ff ff ff       	callq  187f <open_clientfd>
    1970:	89 c7                	mov    %eax,%edi
    1972:	e8 e9 f5 ff ff       	callq  f60 <close@plt>
    1977:	48 83 c4 08          	add    $0x8,%rsp
    197b:	c3                   	retq   

000000000000197c <blank_line>:
    197c:	55                   	push   %rbp
    197d:	53                   	push   %rbx
    197e:	48 83 ec 08          	sub    $0x8,%rsp
    1982:	48 89 fd             	mov    %rdi,%rbp
    1985:	0f b6 5d 00          	movzbl 0x0(%rbp),%ebx
    1989:	84 db                	test   %bl,%bl
    198b:	74 1e                	je     19ab <blank_line+0x2f>
    198d:	e8 0e f7 ff ff       	callq  10a0 <__ctype_b_loc@plt>
    1992:	48 83 c5 01          	add    $0x1,%rbp
    1996:	48 0f be db          	movsbq %bl,%rbx
    199a:	48 8b 00             	mov    (%rax),%rax
    199d:	f6 44 58 01 20       	testb  $0x20,0x1(%rax,%rbx,2)
    19a2:	75 e1                	jne    1985 <blank_line+0x9>
    19a4:	b8 00 00 00 00       	mov    $0x0,%eax
    19a9:	eb 05                	jmp    19b0 <blank_line+0x34>
    19ab:	b8 01 00 00 00       	mov    $0x1,%eax
    19b0:	48 83 c4 08          	add    $0x8,%rsp
    19b4:	5b                   	pop    %rbx
    19b5:	5d                   	pop    %rbp
    19b6:	c3                   	retq   

00000000000019b7 <skip>:
    19b7:	55                   	push   %rbp
    19b8:	53                   	push   %rbx
    19b9:	48 83 ec 08          	sub    $0x8,%rsp
    19bd:	48 8d 2d 1c 2e 20 00 	lea    0x202e1c(%rip),%rbp        # 2047e0 <input_strings>
    19c4:	48 63 05 f1 2d 20 00 	movslq 0x202df1(%rip),%rax        # 2047bc <num_input_strings>
    19cb:	48 8d 3c 80          	lea    (%rax,%rax,4),%rdi
    19cf:	48 c1 e7 04          	shl    $0x4,%rdi
    19d3:	48 01 ef             	add    %rbp,%rdi
    19d6:	48 8b 15 e3 2d 20 00 	mov    0x202de3(%rip),%rdx        # 2047c0 <infile>
    19dd:	be 50 00 00 00       	mov    $0x50,%esi
    19e2:	e8 99 f5 ff ff       	callq  f80 <fgets@plt>
    19e7:	48 89 c3             	mov    %rax,%rbx
    19ea:	48 85 c0             	test   %rax,%rax
    19ed:	74 0c                	je     19fb <skip+0x44>
    19ef:	48 89 c7             	mov    %rax,%rdi
    19f2:	e8 85 ff ff ff       	callq  197c <blank_line>
    19f7:	85 c0                	test   %eax,%eax
    19f9:	75 c9                	jne    19c4 <skip+0xd>
    19fb:	48 89 d8             	mov    %rbx,%rax
    19fe:	48 83 c4 08          	add    $0x8,%rsp
    1a02:	5b                   	pop    %rbx
    1a03:	5d                   	pop    %rbp
    1a04:	c3                   	retq   

0000000000001a05 <writen>:
    1a05:	41 56                	push   %r14
    1a07:	41 55                	push   %r13
    1a09:	41 54                	push   %r12
    1a0b:	55                   	push   %rbp
    1a0c:	53                   	push   %rbx
    1a0d:	49 89 d5             	mov    %rdx,%r13
    1a10:	48 85 d2             	test   %rdx,%rdx
    1a13:	74 3b                	je     1a50 <writen+0x4b>
    1a15:	41 89 fc             	mov    %edi,%r12d
    1a18:	48 89 f5             	mov    %rsi,%rbp
    1a1b:	48 89 d3             	mov    %rdx,%rbx
    1a1e:	41 be 00 00 00 00    	mov    $0x0,%r14d
    1a24:	eb 08                	jmp    1a2e <writen+0x29>
    1a26:	48 01 c5             	add    %rax,%rbp
    1a29:	48 29 c3             	sub    %rax,%rbx
    1a2c:	74 22                	je     1a50 <writen+0x4b>
    1a2e:	48 89 da             	mov    %rbx,%rdx
    1a31:	48 89 ee             	mov    %rbp,%rsi
    1a34:	44 89 e7             	mov    %r12d,%edi
    1a37:	e8 c4 f4 ff ff       	callq  f00 <write@plt>
    1a3c:	48 85 c0             	test   %rax,%rax
    1a3f:	7f e5                	jg     1a26 <writen+0x21>
    1a41:	e8 8a f4 ff ff       	callq  ed0 <__errno_location@plt>
    1a46:	83 38 04             	cmpl   $0x4,(%rax)
    1a49:	75 11                	jne    1a5c <writen+0x57>
    1a4b:	4c 89 f0             	mov    %r14,%rax
    1a4e:	eb d6                	jmp    1a26 <writen+0x21>
    1a50:	4c 89 e8             	mov    %r13,%rax
    1a53:	5b                   	pop    %rbx
    1a54:	5d                   	pop    %rbp
    1a55:	41 5c                	pop    %r12
    1a57:	41 5d                	pop    %r13
    1a59:	41 5e                	pop    %r14
    1a5b:	c3                   	retq   
    1a5c:	48 c7 c0 ff ff ff ff 	mov    $0xffffffffffffffff,%rax
    1a63:	eb ee                	jmp    1a53 <writen+0x4e>

0000000000001a65 <send_msg>:
    1a65:	41 57                	push   %r15
    1a67:	41 56                	push   %r14
    1a69:	41 55                	push   %r13
    1a6b:	41 54                	push   %r12
    1a6d:	55                   	push   %rbp
    1a6e:	53                   	push   %rbx
    1a6f:	48 81 ec 68 24 00 00 	sub    $0x2468,%rsp
    1a76:	41 89 fc             	mov    %edi,%r12d
    1a79:	ba 00 00 00 00       	mov    $0x0,%edx
    1a7e:	be 01 00 00 00       	mov    $0x1,%esi
    1a83:	bf 02 00 00 00       	mov    $0x2,%edi
    1a88:	e8 23 f6 ff ff       	callq  10b0 <socket@plt>
    1a8d:	41 89 c7             	mov    %eax,%r15d
    1a90:	85 c0                	test   %eax,%eax
    1a92:	0f 88 2a 02 00 00    	js     1cc2 <send_msg+0x25d>
    1a98:	48 c7 84 24 50 24 00 	movq   $0x0,0x2450(%rsp)
    1a9f:	00 00 00 00 00 
    1aa4:	48 c7 84 24 58 24 00 	movq   $0x0,0x2458(%rsp)
    1aab:	00 00 00 00 00 
    1ab0:	66 c7 84 24 50 24 00 	movw   $0x2,0x2450(%rsp)
    1ab7:	00 02 00 
    1aba:	66 c7 84 24 52 24 00 	movw   $0x7ac8,0x2452(%rsp)
    1ac1:	00 c8 7a 
    1ac4:	48 8d 94 24 54 24 00 	lea    0x2454(%rsp),%rdx
    1acb:	00 
    1acc:	48 8d 35 90 0b 00 00 	lea    0xb90(%rip),%rsi        # 2663 <array.3090+0x1c3>
    1ad3:	bf 02 00 00 00       	mov    $0x2,%edi
    1ad8:	b8 00 00 00 00       	mov    $0x0,%eax
    1add:	e8 fe f4 ff ff       	callq  fe0 <inet_pton@plt>
    1ae2:	85 c0                	test   %eax,%eax
    1ae4:	0f 88 09 02 00 00    	js     1cf3 <send_msg+0x28e>
    1aea:	48 8d b4 24 50 24 00 	lea    0x2450(%rsp),%rsi
    1af1:	00 
    1af2:	ba 10 00 00 00       	mov    $0x10,%edx
    1af7:	44 89 ff             	mov    %r15d,%edi
    1afa:	e8 71 f5 ff ff       	callq  1070 <connect@plt>
    1aff:	85 c0                	test   %eax,%eax
    1b01:	0f 88 22 02 00 00    	js     1d29 <send_msg+0x2c4>
    1b07:	48 8d 6c 24 50       	lea    0x50(%rsp),%rbp
    1b0c:	48 b8 53 75 62 6a 65 	movabs $0x3a7463656a627553,%rax
    1b13:	63 74 3a 
    1b16:	48 89 44 24 50       	mov    %rax,0x50(%rsp)
    1b1b:	48 b8 20 42 6f 6d 62 	movabs $0x6f6e20626d6f4220,%rax
    1b22:	20 6e 6f 
    1b25:	48 89 44 24 58       	mov    %rax,0x58(%rsp)
    1b2a:	48 b8 74 69 66 69 63 	movabs $0x6974616369666974,%rax
    1b31:	61 74 69 
    1b34:	48 89 44 24 60       	mov    %rax,0x60(%rsp)
    1b39:	c7 44 24 68 6f 6e 0a 	movl   $0xa6e6f,0x68(%rsp)
    1b40:	00 
    1b41:	48 8d 9c 24 50 04 00 	lea    0x450(%rsp),%rbx
    1b48:	00 
    1b49:	48 89 ee             	mov    %rbp,%rsi
    1b4c:	48 89 df             	mov    %rbx,%rdi
    1b4f:	e8 ec f4 ff ff       	callq  1040 <strcat@plt>
    1b54:	66 c7 44 24 50 0a 00 	movw   $0xa,0x50(%rsp)
    1b5b:	48 89 ee             	mov    %rbp,%rsi
    1b5e:	48 89 df             	mov    %rbx,%rdi
    1b61:	e8 da f4 ff ff       	callq  1040 <strcat@plt>
    1b66:	bf 00 00 00 00       	mov    $0x0,%edi
    1b6b:	e8 b0 f4 ff ff       	callq  1020 <cuserid@plt>
    1b70:	48 85 c0             	test   %rax,%rax
    1b73:	0f 84 e6 01 00 00    	je     1d5f <send_msg+0x2fa>
    1b79:	48 89 e7             	mov    %rsp,%rdi
    1b7c:	48 89 c6             	mov    %rax,%rsi
    1b7f:	e8 5c f3 ff ff       	callq  ee0 <strcpy@plt>
    1b84:	45 85 e4             	test   %r12d,%r12d
    1b87:	48 8d 05 eb 0a 00 00 	lea    0xaeb(%rip),%rax        # 2679 <array.3090+0x1d9>
    1b8e:	4c 8d 0d dc 0a 00 00 	lea    0xadc(%rip),%r9        # 2671 <array.3090+0x1d1>
    1b95:	4c 0f 44 c8          	cmove  %rax,%r9
    1b99:	48 8d 5c 24 50       	lea    0x50(%rsp),%rbx
    1b9e:	48 83 ec 08          	sub    $0x8,%rsp
    1ba2:	8b 05 14 2c 20 00    	mov    0x202c14(%rip),%eax        # 2047bc <num_input_strings>
    1ba8:	50                   	push   %rax
    1ba9:	4c 8d 44 24 10       	lea    0x10(%rsp),%r8
    1bae:	8b 0d ac 2a 20 00    	mov    0x202aac(%rip),%ecx        # 204660 <bomb_id>
    1bb4:	48 8d 15 a5 26 20 00 	lea    0x2026a5(%rip),%rdx        # 204260 <lab_id>
    1bbb:	48 8d 35 db 0a 00 00 	lea    0xadb(%rip),%rsi        # 269d <array.3090+0x1fd>
    1bc2:	48 89 df             	mov    %rbx,%rdi
    1bc5:	b8 00 00 00 00       	mov    $0x0,%eax
    1bca:	e8 81 f4 ff ff       	callq  1050 <sprintf@plt>
    1bcf:	48 8d bc 24 60 04 00 	lea    0x460(%rsp),%rdi
    1bd6:	00 
    1bd7:	48 89 de             	mov    %rbx,%rsi
    1bda:	e8 61 f4 ff ff       	callq  1040 <strcat@plt>
    1bdf:	48 83 c4 10          	add    $0x10,%rsp
    1be3:	83 3d d2 2b 20 00 00 	cmpl   $0x0,0x202bd2(%rip)        # 2047bc <num_input_strings>
    1bea:	7e 70                	jle    1c5c <send_msg+0x1f7>
    1bec:	bb 00 00 00 00       	mov    $0x0,%ebx
    1bf1:	4c 8d 35 e8 2b 20 00 	lea    0x202be8(%rip),%r14        # 2047e0 <input_strings>
    1bf8:	49 89 e5             	mov    %rsp,%r13
    1bfb:	48 8d 6c 24 50       	lea    0x50(%rsp),%rbp
    1c00:	4c 8d a4 24 50 04 00 	lea    0x450(%rsp),%r12
    1c07:	00 
    1c08:	48 63 c3             	movslq %ebx,%rax
    1c0b:	48 8d 04 80          	lea    (%rax,%rax,4),%rax
    1c0f:	48 c1 e0 04          	shl    $0x4,%rax
    1c13:	4c 01 f0             	add    %r14,%rax
    1c16:	83 c3 01             	add    $0x1,%ebx
    1c19:	48 83 ec 08          	sub    $0x8,%rsp
    1c1d:	50                   	push   %rax
    1c1e:	41 89 d9             	mov    %ebx,%r9d
    1c21:	4d 89 e8             	mov    %r13,%r8
    1c24:	8b 0d 36 2a 20 00    	mov    0x202a36(%rip),%ecx        # 204660 <bomb_id>
    1c2a:	48 8d 15 2f 26 20 00 	lea    0x20262f(%rip),%rdx        # 204260 <lab_id>
    1c31:	48 8d 35 81 0a 00 00 	lea    0xa81(%rip),%rsi        # 26b9 <array.3090+0x219>
    1c38:	48 89 ef             	mov    %rbp,%rdi
    1c3b:	b8 00 00 00 00       	mov    $0x0,%eax
    1c40:	e8 0b f4 ff ff       	callq  1050 <sprintf@plt>
    1c45:	48 89 ee             	mov    %rbp,%rsi
    1c48:	4c 89 e7             	mov    %r12,%rdi
    1c4b:	e8 f0 f3 ff ff       	callq  1040 <strcat@plt>
    1c50:	48 83 c4 10          	add    $0x10,%rsp
    1c54:	39 1d 62 2b 20 00    	cmp    %ebx,0x202b62(%rip)        # 2047bc <num_input_strings>
    1c5a:	7f ac                	jg     1c08 <send_msg+0x1a3>
    1c5c:	48 8d ac 24 50 04 00 	lea    0x450(%rsp),%rbp
    1c63:	00 
    1c64:	49 c7 c4 ff ff ff ff 	mov    $0xffffffffffffffff,%r12
    1c6b:	bb 00 00 00 00       	mov    $0x0,%ebx
    1c70:	4c 89 e1             	mov    %r12,%rcx
    1c73:	48 89 ef             	mov    %rbp,%rdi
    1c76:	89 d8                	mov    %ebx,%eax
    1c78:	f2 ae                	repnz scas %es:(%rdi),%al
    1c7a:	48 f7 d1             	not    %rcx
    1c7d:	4a 8d 14 21          	lea    (%rcx,%r12,1),%rdx
    1c81:	48 89 ee             	mov    %rbp,%rsi
    1c84:	44 89 ff             	mov    %r15d,%edi
    1c87:	e8 79 fd ff ff       	callq  1a05 <writen>
    1c8c:	48 89 c2             	mov    %rax,%rdx
    1c8f:	4c 89 e1             	mov    %r12,%rcx
    1c92:	48 89 ef             	mov    %rbp,%rdi
    1c95:	89 d8                	mov    %ebx,%eax
    1c97:	f2 ae                	repnz scas %es:(%rdi),%al
    1c99:	48 f7 d1             	not    %rcx
    1c9c:	4c 01 e1             	add    %r12,%rcx
    1c9f:	48 39 ca             	cmp    %rcx,%rdx
    1ca2:	0f 82 cf 00 00 00    	jb     1d77 <send_msg+0x312>
    1ca8:	44 89 ff             	mov    %r15d,%edi
    1cab:	e8 b0 f2 ff ff       	callq  f60 <close@plt>
    1cb0:	48 81 c4 68 24 00 00 	add    $0x2468,%rsp
    1cb7:	5b                   	pop    %rbx
    1cb8:	5d                   	pop    %rbp
    1cb9:	41 5c                	pop    %r12
    1cbb:	41 5d                	pop    %r13
    1cbd:	41 5e                	pop    %r14
    1cbf:	41 5f                	pop    %r15
    1cc1:	c3                   	retq   
    1cc2:	48 8d 15 b9 09 00 00 	lea    0x9b9(%rip),%rdx        # 2682 <array.3090+0x1e2>
    1cc9:	48 8d 35 0d 06 00 00 	lea    0x60d(%rip),%rsi        # 22dd <_IO_stdin_used+0x1d>
    1cd0:	48 8b 3d c9 2a 20 00 	mov    0x202ac9(%rip),%rdi        # 2047a0 <stdout@@GLIBC_2.2.5>
    1cd7:	b8 00 00 00 00       	mov    $0x0,%eax
    1cdc:	e8 df f2 ff ff       	callq  fc0 <fprintf@plt>
    1ce1:	44 89 ff             	mov    %r15d,%edi
    1ce4:	e8 77 f2 ff ff       	callq  f60 <close@plt>
    1ce9:	bf 01 00 00 00       	mov    $0x1,%edi
    1cee:	e8 6d f3 ff ff       	callq  1060 <exit@plt>
    1cf3:	48 8d 15 fc 09 00 00 	lea    0x9fc(%rip),%rdx        # 26f6 <array.3090+0x256>
    1cfa:	48 8d 35 dc 05 00 00 	lea    0x5dc(%rip),%rsi        # 22dd <_IO_stdin_used+0x1d>
    1d01:	48 8b 3d 98 2a 20 00 	mov    0x202a98(%rip),%rdi        # 2047a0 <stdout@@GLIBC_2.2.5>
    1d08:	b8 00 00 00 00       	mov    $0x0,%eax
    1d0d:	e8 ae f2 ff ff       	callq  fc0 <fprintf@plt>
    1d12:	45 85 ff             	test   %r15d,%r15d
    1d15:	74 08                	je     1d1f <send_msg+0x2ba>
    1d17:	44 89 ff             	mov    %r15d,%edi
    1d1a:	e8 41 f2 ff ff       	callq  f60 <close@plt>
    1d1f:	bf 01 00 00 00       	mov    $0x1,%edi
    1d24:	e8 37 f3 ff ff       	callq  1060 <exit@plt>
    1d29:	48 8d 15 5f 09 00 00 	lea    0x95f(%rip),%rdx        # 268f <array.3090+0x1ef>
    1d30:	48 8d 35 a6 05 00 00 	lea    0x5a6(%rip),%rsi        # 22dd <_IO_stdin_used+0x1d>
    1d37:	48 8b 3d 62 2a 20 00 	mov    0x202a62(%rip),%rdi        # 2047a0 <stdout@@GLIBC_2.2.5>
    1d3e:	b8 00 00 00 00       	mov    $0x0,%eax
    1d43:	e8 78 f2 ff ff       	callq  fc0 <fprintf@plt>
    1d48:	45 85 ff             	test   %r15d,%r15d
    1d4b:	74 08                	je     1d55 <send_msg+0x2f0>
    1d4d:	44 89 ff             	mov    %r15d,%edi
    1d50:	e8 0b f2 ff ff       	callq  f60 <close@plt>
    1d55:	bf 01 00 00 00       	mov    $0x1,%edi
    1d5a:	e8 01 f3 ff ff       	callq  1060 <exit@plt>
    1d5f:	c7 04 24 6e 6f 62 6f 	movl   $0x6f626f6e,(%rsp)
    1d66:	66 c7 44 24 04 64 79 	movw   $0x7964,0x4(%rsp)
    1d6d:	c6 44 24 06 00       	movb   $0x0,0x6(%rsp)
    1d72:	e9 0d fe ff ff       	jmpq   1b84 <send_msg+0x11f>
    1d77:	48 8d 15 57 09 00 00 	lea    0x957(%rip),%rdx        # 26d5 <array.3090+0x235>
    1d7e:	48 8d 35 58 05 00 00 	lea    0x558(%rip),%rsi        # 22dd <_IO_stdin_used+0x1d>
    1d85:	48 8b 3d 14 2a 20 00 	mov    0x202a14(%rip),%rdi        # 2047a0 <stdout@@GLIBC_2.2.5>
    1d8c:	e8 2f f2 ff ff       	callq  fc0 <fprintf@plt>
    1d91:	45 85 ff             	test   %r15d,%r15d
    1d94:	74 08                	je     1d9e <send_msg+0x339>
    1d96:	44 89 ff             	mov    %r15d,%edi
    1d99:	e8 c2 f1 ff ff       	callq  f60 <close@plt>
    1d9e:	bf 01 00 00 00       	mov    $0x1,%edi
    1da3:	e8 b8 f2 ff ff       	callq  1060 <exit@plt>

0000000000001da8 <send_msg_2>:
    1da8:	41 57                	push   %r15
    1daa:	41 56                	push   %r14
    1dac:	41 55                	push   %r13
    1dae:	41 54                	push   %r12
    1db0:	55                   	push   %rbp
    1db1:	53                   	push   %rbx
    1db2:	48 83 ec 68          	sub    $0x68,%rsp
    1db6:	89 fb                	mov    %edi,%ebx
    1db8:	bf 00 00 00 00       	mov    $0x0,%edi
    1dbd:	e8 8e f1 ff ff       	callq  f50 <dup@plt>
    1dc2:	89 44 24 0c          	mov    %eax,0xc(%rsp)
    1dc6:	83 f8 ff             	cmp    $0xffffffff,%eax
    1dc9:	0f 84 a6 01 00 00    	je     1f75 <send_msg_2+0x1cd>
    1dcf:	bf 00 00 00 00       	mov    $0x0,%edi
    1dd4:	e8 87 f1 ff ff       	callq  f60 <close@plt>
    1dd9:	83 f8 ff             	cmp    $0xffffffff,%eax
    1ddc:	0f 84 a9 01 00 00    	je     1f8b <send_msg_2+0x1e3>
    1de2:	e8 a9 f1 ff ff       	callq  f90 <tmpfile@plt>
    1de7:	48 89 c5             	mov    %rax,%rbp
    1dea:	48 85 c0             	test   %rax,%rax
    1ded:	0f 84 ae 01 00 00    	je     1fa1 <send_msg_2+0x1f9>
    1df3:	48 89 c1             	mov    %rax,%rcx
    1df6:	ba 1b 00 00 00       	mov    $0x1b,%edx
    1dfb:	be 01 00 00 00       	mov    $0x1,%esi
    1e00:	48 8d 3d 1d 09 00 00 	lea    0x91d(%rip),%rdi        # 2724 <array.3090+0x284>
    1e07:	e8 74 f2 ff ff       	callq  1080 <fwrite@plt>
    1e0c:	48 89 ee             	mov    %rbp,%rsi
    1e0f:	bf 0a 00 00 00       	mov    $0xa,%edi
    1e14:	e8 57 f1 ff ff       	callq  f70 <fputc@plt>
    1e19:	bf 00 00 00 00       	mov    $0x0,%edi
    1e1e:	e8 fd f1 ff ff       	callq  1020 <cuserid@plt>
    1e23:	48 85 c0             	test   %rax,%rax
    1e26:	0f 84 8b 01 00 00    	je     1fb7 <send_msg_2+0x20f>
    1e2c:	48 8d 7c 24 10       	lea    0x10(%rsp),%rdi
    1e31:	48 89 c6             	mov    %rax,%rsi
    1e34:	e8 a7 f0 ff ff       	callq  ee0 <strcpy@plt>
    1e39:	85 db                	test   %ebx,%ebx
    1e3b:	48 8d 05 37 08 00 00 	lea    0x837(%rip),%rax        # 2679 <array.3090+0x1d9>
    1e42:	4c 8d 0d 28 08 00 00 	lea    0x828(%rip),%r9        # 2671 <array.3090+0x1d1>
    1e49:	4c 0f 44 c8          	cmove  %rax,%r9
    1e4d:	48 83 ec 08          	sub    $0x8,%rsp
    1e51:	8b 05 65 29 20 00    	mov    0x202965(%rip),%eax        # 2047bc <num_input_strings>
    1e57:	50                   	push   %rax
    1e58:	4c 8d 44 24 20       	lea    0x20(%rsp),%r8
    1e5d:	8b 0d fd 27 20 00    	mov    0x2027fd(%rip),%ecx        # 204660 <bomb_id>
    1e63:	48 8d 15 f6 23 20 00 	lea    0x2023f6(%rip),%rdx        # 204260 <lab_id>
    1e6a:	48 8d 35 2c 08 00 00 	lea    0x82c(%rip),%rsi        # 269d <array.3090+0x1fd>
    1e71:	48 89 ef             	mov    %rbp,%rdi
    1e74:	b8 00 00 00 00       	mov    $0x0,%eax
    1e79:	e8 42 f1 ff ff       	callq  fc0 <fprintf@plt>
    1e7e:	48 83 c4 10          	add    $0x10,%rsp
    1e82:	83 3d 33 29 20 00 00 	cmpl   $0x0,0x202933(%rip)        # 2047bc <num_input_strings>
    1e89:	7e 60                	jle    1eeb <send_msg_2+0x143>
    1e8b:	bb 00 00 00 00       	mov    $0x0,%ebx
    1e90:	4c 8d 3d 49 29 20 00 	lea    0x202949(%rip),%r15        # 2047e0 <input_strings>
    1e97:	4c 8d 74 24 10       	lea    0x10(%rsp),%r14
    1e9c:	4c 8d 2d bd 23 20 00 	lea    0x2023bd(%rip),%r13        # 204260 <lab_id>
    1ea3:	4c 8d 25 0f 08 00 00 	lea    0x80f(%rip),%r12        # 26b9 <array.3090+0x219>
    1eaa:	48 63 c3             	movslq %ebx,%rax
    1ead:	48 8d 04 80          	lea    (%rax,%rax,4),%rax
    1eb1:	48 c1 e0 04          	shl    $0x4,%rax
    1eb5:	4c 01 f8             	add    %r15,%rax
    1eb8:	83 c3 01             	add    $0x1,%ebx
    1ebb:	48 83 ec 08          	sub    $0x8,%rsp
    1ebf:	50                   	push   %rax
    1ec0:	41 89 d9             	mov    %ebx,%r9d
    1ec3:	4d 89 f0             	mov    %r14,%r8
    1ec6:	8b 0d 94 27 20 00    	mov    0x202794(%rip),%ecx        # 204660 <bomb_id>
    1ecc:	4c 89 ea             	mov    %r13,%rdx
    1ecf:	4c 89 e6             	mov    %r12,%rsi
    1ed2:	48 89 ef             	mov    %rbp,%rdi
    1ed5:	b8 00 00 00 00       	mov    $0x0,%eax
    1eda:	e8 e1 f0 ff ff       	callq  fc0 <fprintf@plt>
    1edf:	48 83 c4 10          	add    $0x10,%rsp
    1ee3:	39 1d d3 28 20 00    	cmp    %ebx,0x2028d3(%rip)        # 2047bc <num_input_strings>
    1ee9:	7f bf                	jg     1eaa <send_msg_2+0x102>
    1eeb:	48 89 ef             	mov    %rbp,%rdi
    1eee:	e8 4d f0 ff ff       	callq  f40 <rewind@plt>
    1ef3:	4c 8d 05 46 08 00 00 	lea    0x846(%rip),%r8        # 2740 <array.3090+0x2a0>
    1efa:	48 8d 0d 49 08 00 00 	lea    0x849(%rip),%rcx        # 274a <array.3090+0x2aa>
    1f01:	48 8d 15 4a 08 00 00 	lea    0x84a(%rip),%rdx        # 2752 <array.3090+0x2b2>
    1f08:	48 8d 35 5a 08 00 00 	lea    0x85a(%rip),%rsi        # 2769 <array.3090+0x2c9>
    1f0f:	48 8d 3d 0a 2f 20 00 	lea    0x202f0a(%rip),%rdi        # 204e20 <scratch>
    1f16:	b8 00 00 00 00       	mov    $0x0,%eax
    1f1b:	e8 30 f1 ff ff       	callq  1050 <sprintf@plt>
    1f20:	48 8d 3d f9 2e 20 00 	lea    0x202ef9(%rip),%rdi        # 204e20 <scratch>
    1f27:	e8 f4 ef ff ff       	callq  f20 <system@plt>
    1f2c:	85 c0                	test   %eax,%eax
    1f2e:	0f 85 9c 00 00 00    	jne    1fd0 <send_msg_2+0x228>
    1f34:	48 89 ef             	mov    %rbp,%rdi
    1f37:	e8 d4 ef ff ff       	callq  f10 <fclose@plt>
    1f3c:	85 c0                	test   %eax,%eax
    1f3e:	0f 85 a2 00 00 00    	jne    1fe6 <send_msg_2+0x23e>
    1f44:	8b 7c 24 0c          	mov    0xc(%rsp),%edi
    1f48:	e8 03 f0 ff ff       	callq  f50 <dup@plt>
    1f4d:	85 c0                	test   %eax,%eax
    1f4f:	0f 85 a7 00 00 00    	jne    1ffc <send_msg_2+0x254>
    1f55:	8b 7c 24 0c          	mov    0xc(%rsp),%edi
    1f59:	e8 02 f0 ff ff       	callq  f60 <close@plt>
    1f5e:	85 c0                	test   %eax,%eax
    1f60:	0f 85 ac 00 00 00    	jne    2012 <send_msg_2+0x26a>
    1f66:	48 83 c4 68          	add    $0x68,%rsp
    1f6a:	5b                   	pop    %rbx
    1f6b:	5d                   	pop    %rbp
    1f6c:	41 5c                	pop    %r12
    1f6e:	41 5d                	pop    %r13
    1f70:	41 5e                	pop    %r14
    1f72:	41 5f                	pop    %r15
    1f74:	c3                   	retq   
    1f75:	48 8d 3d 6c 07 00 00 	lea    0x76c(%rip),%rdi        # 26e8 <array.3090+0x248>
    1f7c:	e8 6f ef ff ff       	callq  ef0 <puts@plt>
    1f81:	bf 08 00 00 00       	mov    $0x8,%edi
    1f86:	e8 d5 f0 ff ff       	callq  1060 <exit@plt>
    1f8b:	48 8d 3d 6a 07 00 00 	lea    0x76a(%rip),%rdi        # 26fc <array.3090+0x25c>
    1f92:	e8 59 ef ff ff       	callq  ef0 <puts@plt>
    1f97:	bf 08 00 00 00       	mov    $0x8,%edi
    1f9c:	e8 bf f0 ff ff       	callq  1060 <exit@plt>
    1fa1:	48 8d 3d 67 07 00 00 	lea    0x767(%rip),%rdi        # 270f <array.3090+0x26f>
    1fa8:	e8 43 ef ff ff       	callq  ef0 <puts@plt>
    1fad:	bf 08 00 00 00       	mov    $0x8,%edi
    1fb2:	e8 a9 f0 ff ff       	callq  1060 <exit@plt>
    1fb7:	c7 44 24 10 6e 6f 62 	movl   $0x6f626f6e,0x10(%rsp)
    1fbe:	6f 
    1fbf:	66 c7 44 24 14 64 79 	movw   $0x7964,0x14(%rsp)
    1fc6:	c6 44 24 16 00       	movb   $0x0,0x16(%rsp)
    1fcb:	e9 69 fe ff ff       	jmpq   1e39 <send_msg_2+0x91>
    1fd0:	48 8d 3d 9b 07 00 00 	lea    0x79b(%rip),%rdi        # 2772 <array.3090+0x2d2>
    1fd7:	e8 14 ef ff ff       	callq  ef0 <puts@plt>
    1fdc:	bf 08 00 00 00       	mov    $0x8,%edi
    1fe1:	e8 7a f0 ff ff       	callq  1060 <exit@plt>
    1fe6:	48 8d 3d 9f 07 00 00 	lea    0x79f(%rip),%rdi        # 278c <array.3090+0x2ec>
    1fed:	e8 fe ee ff ff       	callq  ef0 <puts@plt>
    1ff2:	bf 08 00 00 00       	mov    $0x8,%edi
    1ff7:	e8 64 f0 ff ff       	callq  1060 <exit@plt>
    1ffc:	48 8d 3d a2 07 00 00 	lea    0x7a2(%rip),%rdi        # 27a5 <array.3090+0x305>
    2003:	e8 e8 ee ff ff       	callq  ef0 <puts@plt>
    2008:	bf 08 00 00 00       	mov    $0x8,%edi
    200d:	e8 4e f0 ff ff       	callq  1060 <exit@plt>
    2012:	48 8d 3d a7 07 00 00 	lea    0x7a7(%rip),%rdi        # 27c0 <array.3090+0x320>
    2019:	e8 d2 ee ff ff       	callq  ef0 <puts@plt>
    201e:	bf 08 00 00 00       	mov    $0x8,%edi
    2023:	e8 38 f0 ff ff       	callq  1060 <exit@plt>

0000000000002028 <explode_bomb>:
    2028:	48 83 ec 08          	sub    $0x8,%rsp
    202c:	48 8d 3d a4 07 00 00 	lea    0x7a4(%rip),%rdi        # 27d7 <array.3090+0x337>
    2033:	e8 b8 ee ff ff       	callq  ef0 <puts@plt>
    2038:	48 8d 3d a1 07 00 00 	lea    0x7a1(%rip),%rdi        # 27e0 <array.3090+0x340>
    203f:	e8 ac ee ff ff       	callq  ef0 <puts@plt>
    2044:	bf 00 00 00 00       	mov    $0x0,%edi
    2049:	e8 17 fa ff ff       	callq  1a65 <send_msg>
    204e:	48 8d 3d c3 04 00 00 	lea    0x4c3(%rip),%rdi        # 2518 <array.3090+0x78>
    2055:	e8 96 ee ff ff       	callq  ef0 <puts@plt>
    205a:	bf 08 00 00 00       	mov    $0x8,%edi
    205f:	e8 fc ef ff ff       	callq  1060 <exit@plt>

0000000000002064 <read_six_numbers>:
    2064:	48 83 ec 08          	sub    $0x8,%rsp
    2068:	48 89 f2             	mov    %rsi,%rdx
    206b:	48 8d 4e 04          	lea    0x4(%rsi),%rcx
    206f:	48 8d 46 14          	lea    0x14(%rsi),%rax
    2073:	50                   	push   %rax
    2074:	48 8d 46 10          	lea    0x10(%rsi),%rax
    2078:	50                   	push   %rax
    2079:	4c 8d 4e 0c          	lea    0xc(%rsi),%r9
    207d:	4c 8d 46 08          	lea    0x8(%rsi),%r8
    2081:	48 8d 35 6f 07 00 00 	lea    0x76f(%rip),%rsi        # 27f7 <array.3090+0x357>
    2088:	b8 00 00 00 00       	mov    $0x0,%eax
    208d:	e8 6e ef ff ff       	callq  1000 <__isoc99_sscanf@plt>
    2092:	48 83 c4 10          	add    $0x10,%rsp
    2096:	83 f8 05             	cmp    $0x5,%eax
    2099:	7e 05                	jle    20a0 <read_six_numbers+0x3c>
    209b:	48 83 c4 08          	add    $0x8,%rsp
    209f:	c3                   	retq   
    20a0:	e8 83 ff ff ff       	callq  2028 <explode_bomb>

00000000000020a5 <read_line>:
    20a5:	48 83 ec 08          	sub    $0x8,%rsp
    20a9:	b8 00 00 00 00       	mov    $0x0,%eax
    20ae:	e8 04 f9 ff ff       	callq  19b7 <skip>
    20b3:	48 85 c0             	test   %rax,%rax
    20b6:	74 6f                	je     2127 <read_line+0x82>
    20b8:	8b 35 fe 26 20 00    	mov    0x2026fe(%rip),%esi        # 2047bc <num_input_strings>
    20be:	48 63 c6             	movslq %esi,%rax
    20c1:	48 8d 14 80          	lea    (%rax,%rax,4),%rdx
    20c5:	48 c1 e2 04          	shl    $0x4,%rdx
    20c9:	48 8d 05 10 27 20 00 	lea    0x202710(%rip),%rax        # 2047e0 <input_strings>
    20d0:	48 01 c2             	add    %rax,%rdx
    20d3:	b8 00 00 00 00       	mov    $0x0,%eax
    20d8:	48 c7 c1 ff ff ff ff 	mov    $0xffffffffffffffff,%rcx
    20df:	48 89 d7             	mov    %rdx,%rdi
    20e2:	f2 ae                	repnz scas %es:(%rdi),%al
    20e4:	48 f7 d1             	not    %rcx
    20e7:	48 83 e9 01          	sub    $0x1,%rcx
    20eb:	83 f9 4f             	cmp    $0x4f,%ecx
    20ee:	0f 84 a1 00 00 00    	je     2195 <read_line+0xf0>
    20f4:	83 e9 01             	sub    $0x1,%ecx
    20f7:	48 63 c9             	movslq %ecx,%rcx
    20fa:	48 63 c6             	movslq %esi,%rax
    20fd:	48 8d 04 80          	lea    (%rax,%rax,4),%rax
    2101:	48 c1 e0 04          	shl    $0x4,%rax
    2105:	48 89 c7             	mov    %rax,%rdi
    2108:	48 8d 05 d1 26 20 00 	lea    0x2026d1(%rip),%rax        # 2047e0 <input_strings>
    210f:	48 01 f8             	add    %rdi,%rax
    2112:	c6 04 08 00          	movb   $0x0,(%rax,%rcx,1)
    2116:	83 c6 01             	add    $0x1,%esi
    2119:	89 35 9d 26 20 00    	mov    %esi,0x20269d(%rip)        # 2047bc <num_input_strings>
    211f:	48 89 d0             	mov    %rdx,%rax
    2122:	48 83 c4 08          	add    $0x8,%rsp
    2126:	c3                   	retq   
    2127:	48 8b 05 82 26 20 00 	mov    0x202682(%rip),%rax        # 2047b0 <stdin@@GLIBC_2.2.5>
    212e:	48 39 05 8b 26 20 00 	cmp    %rax,0x20268b(%rip)        # 2047c0 <infile>
    2135:	74 43                	je     217a <read_line+0xd5>
    2137:	48 8d 3d e9 06 00 00 	lea    0x6e9(%rip),%rdi        # 2827 <array.3090+0x387>
    213e:	e8 7d ed ff ff       	callq  ec0 <getenv@plt>
    2143:	48 85 c0             	test   %rax,%rax
    2146:	75 43                	jne    218b <read_line+0xe6>
    2148:	48 8b 05 61 26 20 00 	mov    0x202661(%rip),%rax        # 2047b0 <stdin@@GLIBC_2.2.5>
    214f:	48 89 05 6a 26 20 00 	mov    %rax,0x20266a(%rip)        # 2047c0 <infile>
    2156:	b8 00 00 00 00       	mov    $0x0,%eax
    215b:	e8 57 f8 ff ff       	callq  19b7 <skip>
    2160:	48 85 c0             	test   %rax,%rax
    2163:	0f 85 4f ff ff ff    	jne    20b8 <read_line+0x13>
    2169:	48 8d 3d 99 06 00 00 	lea    0x699(%rip),%rdi        # 2809 <array.3090+0x369>
    2170:	e8 7b ed ff ff       	callq  ef0 <puts@plt>
    2175:	e8 ae fe ff ff       	callq  2028 <explode_bomb>
    217a:	48 8d 3d 88 06 00 00 	lea    0x688(%rip),%rdi        # 2809 <array.3090+0x369>
    2181:	e8 6a ed ff ff       	callq  ef0 <puts@plt>
    2186:	e8 9d fe ff ff       	callq  2028 <explode_bomb>
    218b:	bf 00 00 00 00       	mov    $0x0,%edi
    2190:	e8 cb ee ff ff       	callq  1060 <exit@plt>
    2195:	48 8d 3d 96 06 00 00 	lea    0x696(%rip),%rdi        # 2832 <array.3090+0x392>
    219c:	e8 4f ed ff ff       	callq  ef0 <puts@plt>
    21a1:	e8 82 fe ff ff       	callq  2028 <explode_bomb>

00000000000021a6 <phase_defused>:
    21a6:	48 83 ec 68          	sub    $0x68,%rsp
    21aa:	bf 01 00 00 00       	mov    $0x1,%edi
    21af:	e8 b1 f8 ff ff       	callq  1a65 <send_msg>
    21b4:	83 3d 01 26 20 00 06 	cmpl   $0x6,0x202601(%rip)        # 2047bc <num_input_strings>
    21bb:	74 05                	je     21c2 <phase_defused+0x1c>
    21bd:	48 83 c4 68          	add    $0x68,%rsp
    21c1:	c3                   	retq   
    21c2:	48 8d 4c 24 10       	lea    0x10(%rsp),%rcx
    21c7:	48 8d 54 24 0c       	lea    0xc(%rsp),%rdx
    21cc:	48 8d 35 7a 06 00 00 	lea    0x67a(%rip),%rsi        # 284d <array.3090+0x3ad>
    21d3:	48 8d 3d f6 26 20 00 	lea    0x2026f6(%rip),%rdi        # 2048d0 <input_strings+0xf0>
    21da:	b8 00 00 00 00       	mov    $0x0,%eax
    21df:	e8 1c ee ff ff       	callq  1000 <__isoc99_sscanf@plt>
    21e4:	83 f8 02             	cmp    $0x2,%eax
    21e7:	74 1a                	je     2203 <phase_defused+0x5d>
    21e9:	48 8d 3d b0 03 00 00 	lea    0x3b0(%rip),%rdi        # 25a0 <array.3090+0x100>
    21f0:	e8 fb ec ff ff       	callq  ef0 <puts@plt>
    21f5:	48 8d 3d d4 03 00 00 	lea    0x3d4(%rip),%rdi        # 25d0 <array.3090+0x130>
    21fc:	e8 ef ec ff ff       	callq  ef0 <puts@plt>
    2201:	eb ba                	jmp    21bd <phase_defused+0x17>
    2203:	48 8d 7c 24 10       	lea    0x10(%rsp),%rdi
    2208:	48 8d 35 44 06 00 00 	lea    0x644(%rip),%rsi        # 2853 <array.3090+0x3b3>
    220f:	e8 04 f6 ff ff       	callq  1818 <strings_not_equal>
    2214:	85 c0                	test   %eax,%eax
    2216:	75 d1                	jne    21e9 <phase_defused+0x43>
    2218:	48 8d 3d 21 03 00 00 	lea    0x321(%rip),%rdi        # 2540 <array.3090+0xa0>
    221f:	e8 cc ec ff ff       	callq  ef0 <puts@plt>
    2224:	48 8d 3d 3d 03 00 00 	lea    0x33d(%rip),%rdi        # 2568 <array.3090+0xc8>
    222b:	e8 c0 ec ff ff       	callq  ef0 <puts@plt>
    2230:	b8 00 00 00 00       	mov    $0x0,%eax
    2235:	e8 f0 f4 ff ff       	callq  172a <secret_phase>
    223a:	eb ad                	jmp    21e9 <phase_defused+0x43>
    223c:	0f 1f 40 00          	nopl   0x0(%rax)

0000000000002240 <__libc_csu_init>:
    2240:	41 57                	push   %r15
    2242:	41 56                	push   %r14
    2244:	41 89 ff             	mov    %edi,%r15d
    2247:	41 55                	push   %r13
    2249:	41 54                	push   %r12
    224b:	4c 8d 25 86 1b 20 00 	lea    0x201b86(%rip),%r12        # 203dd8 <__frame_dummy_init_array_entry>
    2252:	55                   	push   %rbp
    2253:	48 8d 2d 86 1b 20 00 	lea    0x201b86(%rip),%rbp        # 203de0 <__init_array_end>
    225a:	53                   	push   %rbx
    225b:	49 89 f6             	mov    %rsi,%r14
    225e:	49 89 d5             	mov    %rdx,%r13
    2261:	4c 29 e5             	sub    %r12,%rbp
    2264:	48 83 ec 08          	sub    $0x8,%rsp
    2268:	48 c1 fd 03          	sar    $0x3,%rbp
    226c:	e8 27 ec ff ff       	callq  e98 <_init>
    2271:	48 85 ed             	test   %rbp,%rbp
    2274:	74 20                	je     2296 <__libc_csu_init+0x56>
    2276:	31 db                	xor    %ebx,%ebx
    2278:	0f 1f 84 00 00 00 00 	nopl   0x0(%rax,%rax,1)
    227f:	00 
    2280:	4c 89 ea             	mov    %r13,%rdx
    2283:	4c 89 f6             	mov    %r14,%rsi
    2286:	44 89 ff             	mov    %r15d,%edi
    2289:	41 ff 14 dc          	callq  *(%r12,%rbx,8)
    228d:	48 83 c3 01          	add    $0x1,%rbx
    2291:	48 39 dd             	cmp    %rbx,%rbp
    2294:	75 ea                	jne    2280 <__libc_csu_init+0x40>
    2296:	48 83 c4 08          	add    $0x8,%rsp
    229a:	5b                   	pop    %rbx
    229b:	5d                   	pop    %rbp
    229c:	41 5c                	pop    %r12
    229e:	41 5d                	pop    %r13
    22a0:	41 5e                	pop    %r14
    22a2:	41 5f                	pop    %r15
    22a4:	c3                   	retq   
    22a5:	90                   	nop
    22a6:	66 2e 0f 1f 84 00 00 	nopw   %cs:0x0(%rax,%rax,1)
    22ad:	00 00 00 

00000000000022b0 <__libc_csu_fini>:
    22b0:	f3 c3                	repz retq 

Disassembly of section .fini:

00000000000022b4 <_fini>:
    22b4:	48 83 ec 08          	sub    $0x8,%rsp
    22b8:	48 83 c4 08          	add    $0x8,%rsp
    22bc:	c3                   	retq   
