
rtarget：     文件格式 elf64-x86-64


Disassembly of section .init:

0000000000400bb0 <_init>:
  400bb0:	48 83 ec 08          	sub    $0x8,%rsp
  400bb4:	48 8b 05 3d 44 20 00 	mov    0x20443d(%rip),%rax        # 604ff8 <__gmon_start__>
  400bbb:	48 85 c0             	test   %rax,%rax
  400bbe:	74 02                	je     400bc2 <_init+0x12>
  400bc0:	ff d0                	callq  *%rax
  400bc2:	48 83 c4 08          	add    $0x8,%rsp
  400bc6:	c3                   	retq   

Disassembly of section .plt:

0000000000400bd0 <.plt>:
  400bd0:	ff 35 32 44 20 00    	pushq  0x204432(%rip)        # 605008 <_GLOBAL_OFFSET_TABLE_+0x8>
  400bd6:	ff 25 34 44 20 00    	jmpq   *0x204434(%rip)        # 605010 <_GLOBAL_OFFSET_TABLE_+0x10>
  400bdc:	0f 1f 40 00          	nopl   0x0(%rax)

0000000000400be0 <strcasecmp@plt>:
  400be0:	ff 25 32 44 20 00    	jmpq   *0x204432(%rip)        # 605018 <strcasecmp@GLIBC_2.2.5>
  400be6:	68 00 00 00 00       	pushq  $0x0
  400beb:	e9 e0 ff ff ff       	jmpq   400bd0 <.plt>

0000000000400bf0 <__errno_location@plt>:
  400bf0:	ff 25 2a 44 20 00    	jmpq   *0x20442a(%rip)        # 605020 <__errno_location@GLIBC_2.2.5>
  400bf6:	68 01 00 00 00       	pushq  $0x1
  400bfb:	e9 d0 ff ff ff       	jmpq   400bd0 <.plt>

0000000000400c00 <srandom@plt>:
  400c00:	ff 25 22 44 20 00    	jmpq   *0x204422(%rip)        # 605028 <srandom@GLIBC_2.2.5>
  400c06:	68 02 00 00 00       	pushq  $0x2
  400c0b:	e9 c0 ff ff ff       	jmpq   400bd0 <.plt>

0000000000400c10 <strncmp@plt>:
  400c10:	ff 25 1a 44 20 00    	jmpq   *0x20441a(%rip)        # 605030 <strncmp@GLIBC_2.2.5>
  400c16:	68 03 00 00 00       	pushq  $0x3
  400c1b:	e9 b0 ff ff ff       	jmpq   400bd0 <.plt>

0000000000400c20 <strcpy@plt>:
  400c20:	ff 25 12 44 20 00    	jmpq   *0x204412(%rip)        # 605038 <strcpy@GLIBC_2.2.5>
  400c26:	68 04 00 00 00       	pushq  $0x4
  400c2b:	e9 a0 ff ff ff       	jmpq   400bd0 <.plt>

0000000000400c30 <puts@plt>:
  400c30:	ff 25 0a 44 20 00    	jmpq   *0x20440a(%rip)        # 605040 <puts@GLIBC_2.2.5>
  400c36:	68 05 00 00 00       	pushq  $0x5
  400c3b:	e9 90 ff ff ff       	jmpq   400bd0 <.plt>

0000000000400c40 <write@plt>:
  400c40:	ff 25 02 44 20 00    	jmpq   *0x204402(%rip)        # 605048 <write@GLIBC_2.2.5>
  400c46:	68 06 00 00 00       	pushq  $0x6
  400c4b:	e9 80 ff ff ff       	jmpq   400bd0 <.plt>

0000000000400c50 <mmap@plt>:
  400c50:	ff 25 fa 43 20 00    	jmpq   *0x2043fa(%rip)        # 605050 <mmap@GLIBC_2.2.5>
  400c56:	68 07 00 00 00       	pushq  $0x7
  400c5b:	e9 70 ff ff ff       	jmpq   400bd0 <.plt>

0000000000400c60 <printf@plt>:
  400c60:	ff 25 f2 43 20 00    	jmpq   *0x2043f2(%rip)        # 605058 <printf@GLIBC_2.2.5>
  400c66:	68 08 00 00 00       	pushq  $0x8
  400c6b:	e9 60 ff ff ff       	jmpq   400bd0 <.plt>

0000000000400c70 <memset@plt>:
  400c70:	ff 25 ea 43 20 00    	jmpq   *0x2043ea(%rip)        # 605060 <memset@GLIBC_2.2.5>
  400c76:	68 09 00 00 00       	pushq  $0x9
  400c7b:	e9 50 ff ff ff       	jmpq   400bd0 <.plt>

0000000000400c80 <alarm@plt>:
  400c80:	ff 25 e2 43 20 00    	jmpq   *0x2043e2(%rip)        # 605068 <alarm@GLIBC_2.2.5>
  400c86:	68 0a 00 00 00       	pushq  $0xa
  400c8b:	e9 40 ff ff ff       	jmpq   400bd0 <.plt>

0000000000400c90 <close@plt>:
  400c90:	ff 25 da 43 20 00    	jmpq   *0x2043da(%rip)        # 605070 <close@GLIBC_2.2.5>
  400c96:	68 0b 00 00 00       	pushq  $0xb
  400c9b:	e9 30 ff ff ff       	jmpq   400bd0 <.plt>

0000000000400ca0 <read@plt>:
  400ca0:	ff 25 d2 43 20 00    	jmpq   *0x2043d2(%rip)        # 605078 <read@GLIBC_2.2.5>
  400ca6:	68 0c 00 00 00       	pushq  $0xc
  400cab:	e9 20 ff ff ff       	jmpq   400bd0 <.plt>

0000000000400cb0 <signal@plt>:
  400cb0:	ff 25 ca 43 20 00    	jmpq   *0x2043ca(%rip)        # 605080 <signal@GLIBC_2.2.5>
  400cb6:	68 0d 00 00 00       	pushq  $0xd
  400cbb:	e9 10 ff ff ff       	jmpq   400bd0 <.plt>

0000000000400cc0 <gethostbyname@plt>:
  400cc0:	ff 25 c2 43 20 00    	jmpq   *0x2043c2(%rip)        # 605088 <gethostbyname@GLIBC_2.2.5>
  400cc6:	68 0e 00 00 00       	pushq  $0xe
  400ccb:	e9 00 ff ff ff       	jmpq   400bd0 <.plt>

0000000000400cd0 <fprintf@plt>:
  400cd0:	ff 25 ba 43 20 00    	jmpq   *0x2043ba(%rip)        # 605090 <fprintf@GLIBC_2.2.5>
  400cd6:	68 0f 00 00 00       	pushq  $0xf
  400cdb:	e9 f0 fe ff ff       	jmpq   400bd0 <.plt>

0000000000400ce0 <strtol@plt>:
  400ce0:	ff 25 b2 43 20 00    	jmpq   *0x2043b2(%rip)        # 605098 <strtol@GLIBC_2.2.5>
  400ce6:	68 10 00 00 00       	pushq  $0x10
  400ceb:	e9 e0 fe ff ff       	jmpq   400bd0 <.plt>

0000000000400cf0 <memcpy@plt>:
  400cf0:	ff 25 aa 43 20 00    	jmpq   *0x2043aa(%rip)        # 6050a0 <memcpy@GLIBC_2.14>
  400cf6:	68 11 00 00 00       	pushq  $0x11
  400cfb:	e9 d0 fe ff ff       	jmpq   400bd0 <.plt>

0000000000400d00 <time@plt>:
  400d00:	ff 25 a2 43 20 00    	jmpq   *0x2043a2(%rip)        # 6050a8 <time@GLIBC_2.2.5>
  400d06:	68 12 00 00 00       	pushq  $0x12
  400d0b:	e9 c0 fe ff ff       	jmpq   400bd0 <.plt>

0000000000400d10 <random@plt>:
  400d10:	ff 25 9a 43 20 00    	jmpq   *0x20439a(%rip)        # 6050b0 <random@GLIBC_2.2.5>
  400d16:	68 13 00 00 00       	pushq  $0x13
  400d1b:	e9 b0 fe ff ff       	jmpq   400bd0 <.plt>

0000000000400d20 <_IO_getc@plt>:
  400d20:	ff 25 92 43 20 00    	jmpq   *0x204392(%rip)        # 6050b8 <_IO_getc@GLIBC_2.2.5>
  400d26:	68 14 00 00 00       	pushq  $0x14
  400d2b:	e9 a0 fe ff ff       	jmpq   400bd0 <.plt>

0000000000400d30 <__isoc99_sscanf@plt>:
  400d30:	ff 25 8a 43 20 00    	jmpq   *0x20438a(%rip)        # 6050c0 <__isoc99_sscanf@GLIBC_2.7>
  400d36:	68 15 00 00 00       	pushq  $0x15
  400d3b:	e9 90 fe ff ff       	jmpq   400bd0 <.plt>

0000000000400d40 <munmap@plt>:
  400d40:	ff 25 82 43 20 00    	jmpq   *0x204382(%rip)        # 6050c8 <munmap@GLIBC_2.2.5>
  400d46:	68 16 00 00 00       	pushq  $0x16
  400d4b:	e9 80 fe ff ff       	jmpq   400bd0 <.plt>

0000000000400d50 <bcopy@plt>:
  400d50:	ff 25 7a 43 20 00    	jmpq   *0x20437a(%rip)        # 6050d0 <bcopy@GLIBC_2.2.5>
  400d56:	68 17 00 00 00       	pushq  $0x17
  400d5b:	e9 70 fe ff ff       	jmpq   400bd0 <.plt>

0000000000400d60 <fopen@plt>:
  400d60:	ff 25 72 43 20 00    	jmpq   *0x204372(%rip)        # 6050d8 <fopen@GLIBC_2.2.5>
  400d66:	68 18 00 00 00       	pushq  $0x18
  400d6b:	e9 60 fe ff ff       	jmpq   400bd0 <.plt>

0000000000400d70 <getopt@plt>:
  400d70:	ff 25 6a 43 20 00    	jmpq   *0x20436a(%rip)        # 6050e0 <getopt@GLIBC_2.2.5>
  400d76:	68 19 00 00 00       	pushq  $0x19
  400d7b:	e9 50 fe ff ff       	jmpq   400bd0 <.plt>

0000000000400d80 <strtoul@plt>:
  400d80:	ff 25 62 43 20 00    	jmpq   *0x204362(%rip)        # 6050e8 <strtoul@GLIBC_2.2.5>
  400d86:	68 1a 00 00 00       	pushq  $0x1a
  400d8b:	e9 40 fe ff ff       	jmpq   400bd0 <.plt>

0000000000400d90 <gethostname@plt>:
  400d90:	ff 25 5a 43 20 00    	jmpq   *0x20435a(%rip)        # 6050f0 <gethostname@GLIBC_2.2.5>
  400d96:	68 1b 00 00 00       	pushq  $0x1b
  400d9b:	e9 30 fe ff ff       	jmpq   400bd0 <.plt>

0000000000400da0 <sprintf@plt>:
  400da0:	ff 25 52 43 20 00    	jmpq   *0x204352(%rip)        # 6050f8 <sprintf@GLIBC_2.2.5>
  400da6:	68 1c 00 00 00       	pushq  $0x1c
  400dab:	e9 20 fe ff ff       	jmpq   400bd0 <.plt>

0000000000400db0 <exit@plt>:
  400db0:	ff 25 4a 43 20 00    	jmpq   *0x20434a(%rip)        # 605100 <exit@GLIBC_2.2.5>
  400db6:	68 1d 00 00 00       	pushq  $0x1d
  400dbb:	e9 10 fe ff ff       	jmpq   400bd0 <.plt>

0000000000400dc0 <connect@plt>:
  400dc0:	ff 25 42 43 20 00    	jmpq   *0x204342(%rip)        # 605108 <connect@GLIBC_2.2.5>
  400dc6:	68 1e 00 00 00       	pushq  $0x1e
  400dcb:	e9 00 fe ff ff       	jmpq   400bd0 <.plt>

0000000000400dd0 <socket@plt>:
  400dd0:	ff 25 3a 43 20 00    	jmpq   *0x20433a(%rip)        # 605110 <socket@GLIBC_2.2.5>
  400dd6:	68 1f 00 00 00       	pushq  $0x1f
  400ddb:	e9 f0 fd ff ff       	jmpq   400bd0 <.plt>

Disassembly of section .text:

0000000000400de0 <_start>:
  400de0:	31 ed                	xor    %ebp,%ebp
  400de2:	49 89 d1             	mov    %rdx,%r9
  400de5:	5e                   	pop    %rsi
  400de6:	48 89 e2             	mov    %rsp,%rdx
  400de9:	48 83 e4 f0          	and    $0xfffffffffffffff0,%rsp
  400ded:	50                   	push   %rax
  400dee:	54                   	push   %rsp
  400def:	49 c7 c0 50 2e 40 00 	mov    $0x402e50,%r8
  400df6:	48 c7 c1 e0 2d 40 00 	mov    $0x402de0,%rcx
  400dfd:	48 c7 c7 8d 10 40 00 	mov    $0x40108d,%rdi
  400e04:	ff 15 e6 41 20 00    	callq  *0x2041e6(%rip)        # 604ff0 <__libc_start_main@GLIBC_2.2.5>
  400e0a:	f4                   	hlt    
  400e0b:	0f 1f 44 00 00       	nopl   0x0(%rax,%rax,1)

0000000000400e10 <deregister_tm_clones>:
  400e10:	b8 97 54 60 00       	mov    $0x605497,%eax
  400e15:	55                   	push   %rbp
  400e16:	48 2d 90 54 60 00    	sub    $0x605490,%rax
  400e1c:	48 83 f8 0e          	cmp    $0xe,%rax
  400e20:	48 89 e5             	mov    %rsp,%rbp
  400e23:	76 1b                	jbe    400e40 <deregister_tm_clones+0x30>
  400e25:	b8 00 00 00 00       	mov    $0x0,%eax
  400e2a:	48 85 c0             	test   %rax,%rax
  400e2d:	74 11                	je     400e40 <deregister_tm_clones+0x30>
  400e2f:	5d                   	pop    %rbp
  400e30:	bf 90 54 60 00       	mov    $0x605490,%edi
  400e35:	ff e0                	jmpq   *%rax
  400e37:	66 0f 1f 84 00 00 00 	nopw   0x0(%rax,%rax,1)
  400e3e:	00 00 
  400e40:	5d                   	pop    %rbp
  400e41:	c3                   	retq   
  400e42:	0f 1f 40 00          	nopl   0x0(%rax)
  400e46:	66 2e 0f 1f 84 00 00 	nopw   %cs:0x0(%rax,%rax,1)
  400e4d:	00 00 00 

0000000000400e50 <register_tm_clones>:
  400e50:	be 90 54 60 00       	mov    $0x605490,%esi
  400e55:	55                   	push   %rbp
  400e56:	48 81 ee 90 54 60 00 	sub    $0x605490,%rsi
  400e5d:	48 c1 fe 03          	sar    $0x3,%rsi
  400e61:	48 89 e5             	mov    %rsp,%rbp
  400e64:	48 89 f0             	mov    %rsi,%rax
  400e67:	48 c1 e8 3f          	shr    $0x3f,%rax
  400e6b:	48 01 c6             	add    %rax,%rsi
  400e6e:	48 d1 fe             	sar    %rsi
  400e71:	74 15                	je     400e88 <register_tm_clones+0x38>
  400e73:	b8 00 00 00 00       	mov    $0x0,%eax
  400e78:	48 85 c0             	test   %rax,%rax
  400e7b:	74 0b                	je     400e88 <register_tm_clones+0x38>
  400e7d:	5d                   	pop    %rbp
  400e7e:	bf 90 54 60 00       	mov    $0x605490,%edi
  400e83:	ff e0                	jmpq   *%rax
  400e85:	0f 1f 00             	nopl   (%rax)
  400e88:	5d                   	pop    %rbp
  400e89:	c3                   	retq   
  400e8a:	66 0f 1f 44 00 00    	nopw   0x0(%rax,%rax,1)

0000000000400e90 <__do_global_dtors_aux>:
  400e90:	80 3d 31 46 20 00 00 	cmpb   $0x0,0x204631(%rip)        # 6054c8 <completed.6972>
  400e97:	75 11                	jne    400eaa <__do_global_dtors_aux+0x1a>
  400e99:	55                   	push   %rbp
  400e9a:	48 89 e5             	mov    %rsp,%rbp
  400e9d:	e8 6e ff ff ff       	callq  400e10 <deregister_tm_clones>
  400ea2:	5d                   	pop    %rbp
  400ea3:	c6 05 1e 46 20 00 01 	movb   $0x1,0x20461e(%rip)        # 6054c8 <completed.6972>
  400eaa:	f3 c3                	repz retq 
  400eac:	0f 1f 40 00          	nopl   0x0(%rax)

0000000000400eb0 <frame_dummy>:
  400eb0:	bf 18 4e 60 00       	mov    $0x604e18,%edi
  400eb5:	48 83 3f 00          	cmpq   $0x0,(%rdi)
  400eb9:	75 05                	jne    400ec0 <frame_dummy+0x10>
  400ebb:	eb 93                	jmp    400e50 <register_tm_clones>
  400ebd:	0f 1f 00             	nopl   (%rax)
  400ec0:	b8 00 00 00 00       	mov    $0x0,%eax
  400ec5:	48 85 c0             	test   %rax,%rax
  400ec8:	74 f1                	je     400ebb <frame_dummy+0xb>
  400eca:	55                   	push   %rbp
  400ecb:	48 89 e5             	mov    %rsp,%rbp
  400ece:	ff d0                	callq  *%rax
  400ed0:	5d                   	pop    %rbp
  400ed1:	e9 7a ff ff ff       	jmpq   400e50 <register_tm_clones>

0000000000400ed6 <usage>:
  400ed6:	48 83 ec 08          	sub    $0x8,%rsp
  400eda:	48 89 fe             	mov    %rdi,%rsi
  400edd:	83 3d 24 46 20 00 00 	cmpl   $0x0,0x204624(%rip)        # 605508 <is_checker>
  400ee4:	74 4b                	je     400f31 <usage+0x5b>
  400ee6:	48 8d 3d 7b 1f 00 00 	lea    0x1f7b(%rip),%rdi        # 402e68 <_IO_stdin_used+0x8>
  400eed:	b8 00 00 00 00       	mov    $0x0,%eax
  400ef2:	e8 69 fd ff ff       	callq  400c60 <printf@plt>
  400ef7:	48 8d 3d a2 1f 00 00 	lea    0x1fa2(%rip),%rdi        # 402ea0 <_IO_stdin_used+0x40>
  400efe:	e8 2d fd ff ff       	callq  400c30 <puts@plt>
  400f03:	48 8d 3d ce 20 00 00 	lea    0x20ce(%rip),%rdi        # 402fd8 <_IO_stdin_used+0x178>
  400f0a:	e8 21 fd ff ff       	callq  400c30 <puts@plt>
  400f0f:	48 8d 3d b2 1f 00 00 	lea    0x1fb2(%rip),%rdi        # 402ec8 <_IO_stdin_used+0x68>
  400f16:	e8 15 fd ff ff       	callq  400c30 <puts@plt>
  400f1b:	48 8d 3d d0 20 00 00 	lea    0x20d0(%rip),%rdi        # 402ff2 <_IO_stdin_used+0x192>
  400f22:	e8 09 fd ff ff       	callq  400c30 <puts@plt>
  400f27:	bf 00 00 00 00       	mov    $0x0,%edi
  400f2c:	e8 7f fe ff ff       	callq  400db0 <exit@plt>
  400f31:	48 8d 3d d6 20 00 00 	lea    0x20d6(%rip),%rdi        # 40300e <_IO_stdin_used+0x1ae>
  400f38:	b8 00 00 00 00       	mov    $0x0,%eax
  400f3d:	e8 1e fd ff ff       	callq  400c60 <printf@plt>
  400f42:	48 8d 3d a7 1f 00 00 	lea    0x1fa7(%rip),%rdi        # 402ef0 <_IO_stdin_used+0x90>
  400f49:	e8 e2 fc ff ff       	callq  400c30 <puts@plt>
  400f4e:	48 8d 3d c3 1f 00 00 	lea    0x1fc3(%rip),%rdi        # 402f18 <_IO_stdin_used+0xb8>
  400f55:	e8 d6 fc ff ff       	callq  400c30 <puts@plt>
  400f5a:	48 8d 3d cb 20 00 00 	lea    0x20cb(%rip),%rdi        # 40302c <_IO_stdin_used+0x1cc>
  400f61:	e8 ca fc ff ff       	callq  400c30 <puts@plt>
  400f66:	eb bf                	jmp    400f27 <usage+0x51>

0000000000400f68 <initialize_target>:
  400f68:	55                   	push   %rbp
  400f69:	53                   	push   %rbx
  400f6a:	48 81 ec 08 21 00 00 	sub    $0x2108,%rsp
  400f71:	89 f5                	mov    %esi,%ebp
  400f73:	89 3d 7f 45 20 00    	mov    %edi,0x20457f(%rip)        # 6054f8 <check_level>
  400f79:	8b 3d b1 41 20 00    	mov    0x2041b1(%rip),%edi        # 605130 <target_id>
  400f7f:	e8 39 1e 00 00       	callq  402dbd <gencookie>
  400f84:	89 05 7a 45 20 00    	mov    %eax,0x20457a(%rip)        # 605504 <cookie>
  400f8a:	89 c7                	mov    %eax,%edi
  400f8c:	e8 2c 1e 00 00       	callq  402dbd <gencookie>
  400f91:	89 05 69 45 20 00    	mov    %eax,0x204569(%rip)        # 605500 <authkey>
  400f97:	8b 05 93 41 20 00    	mov    0x204193(%rip),%eax        # 605130 <target_id>
  400f9d:	8d 78 01             	lea    0x1(%rax),%edi
  400fa0:	e8 5b fc ff ff       	callq  400c00 <srandom@plt>
  400fa5:	e8 66 fd ff ff       	callq  400d10 <random@plt>
  400faa:	89 c7                	mov    %eax,%edi
  400fac:	e8 c3 02 00 00       	callq  401274 <scramble>
  400fb1:	89 c3                	mov    %eax,%ebx
  400fb3:	85 ed                	test   %ebp,%ebp
  400fb5:	75 3d                	jne    400ff4 <initialize_target+0x8c>
  400fb7:	b8 00 00 00 00       	mov    $0x0,%eax
  400fbc:	01 d8                	add    %ebx,%eax
  400fbe:	0f b7 c0             	movzwl %ax,%eax
  400fc1:	8d 04 c5 00 01 00 00 	lea    0x100(,%rax,8),%eax
  400fc8:	89 c0                	mov    %eax,%eax
  400fca:	48 89 05 af 44 20 00 	mov    %rax,0x2044af(%rip)        # 605480 <buf_offset>
  400fd1:	c6 05 50 51 20 00 72 	movb   $0x72,0x205150(%rip)        # 606128 <target_prefix>
  400fd8:	83 3d a9 44 20 00 00 	cmpl   $0x0,0x2044a9(%rip)        # 605488 <notify>
  400fdf:	74 09                	je     400fea <initialize_target+0x82>
  400fe1:	83 3d 20 45 20 00 00 	cmpl   $0x0,0x204520(%rip)        # 605508 <is_checker>
  400fe8:	74 22                	je     40100c <initialize_target+0xa4>
  400fea:	48 81 c4 08 21 00 00 	add    $0x2108,%rsp
  400ff1:	5b                   	pop    %rbx
  400ff2:	5d                   	pop    %rbp
  400ff3:	c3                   	retq   
  400ff4:	bf 00 00 00 00       	mov    $0x0,%edi
  400ff9:	e8 02 fd ff ff       	callq  400d00 <time@plt>
  400ffe:	89 c7                	mov    %eax,%edi
  401000:	e8 fb fb ff ff       	callq  400c00 <srandom@plt>
  401005:	e8 06 fd ff ff       	callq  400d10 <random@plt>
  40100a:	eb b0                	jmp    400fbc <initialize_target+0x54>
  40100c:	48 89 e7             	mov    %rsp,%rdi
  40100f:	be 00 01 00 00       	mov    $0x100,%esi
  401014:	e8 77 fd ff ff       	callq  400d90 <gethostname@plt>
  401019:	89 c3                	mov    %eax,%ebx
  40101b:	85 c0                	test   %eax,%eax
  40101d:	75 24                	jne    401043 <initialize_target+0xdb>
  40101f:	48 63 c3             	movslq %ebx,%rax
  401022:	48 8d 15 37 41 20 00 	lea    0x204137(%rip),%rdx        # 605160 <host_table>
  401029:	48 8b 3c c2          	mov    (%rdx,%rax,8),%rdi
  40102d:	48 85 ff             	test   %rdi,%rdi
  401030:	74 27                	je     401059 <initialize_target+0xf1>
  401032:	48 89 e6             	mov    %rsp,%rsi
  401035:	e8 a6 fb ff ff       	callq  400be0 <strcasecmp@plt>
  40103a:	85 c0                	test   %eax,%eax
  40103c:	74 1b                	je     401059 <initialize_target+0xf1>
  40103e:	83 c3 01             	add    $0x1,%ebx
  401041:	eb dc                	jmp    40101f <initialize_target+0xb7>
  401043:	48 8d 3d fe 1e 00 00 	lea    0x1efe(%rip),%rdi        # 402f48 <_IO_stdin_used+0xe8>
  40104a:	e8 e1 fb ff ff       	callq  400c30 <puts@plt>
  40104f:	bf 08 00 00 00       	mov    $0x8,%edi
  401054:	e8 57 fd ff ff       	callq  400db0 <exit@plt>
  401059:	48 8d bc 24 00 01 00 	lea    0x100(%rsp),%rdi
  401060:	00 
  401061:	e8 dc 1a 00 00       	callq  402b42 <init_driver>
  401066:	85 c0                	test   %eax,%eax
  401068:	79 80                	jns    400fea <initialize_target+0x82>
  40106a:	48 8d b4 24 00 01 00 	lea    0x100(%rsp),%rsi
  401071:	00 
  401072:	48 8d 3d 07 1f 00 00 	lea    0x1f07(%rip),%rdi        # 402f80 <_IO_stdin_used+0x120>
  401079:	b8 00 00 00 00       	mov    $0x0,%eax
  40107e:	e8 dd fb ff ff       	callq  400c60 <printf@plt>
  401083:	bf 08 00 00 00       	mov    $0x8,%edi
  401088:	e8 23 fd ff ff       	callq  400db0 <exit@plt>

000000000040108d <main>:
  40108d:	41 56                	push   %r14
  40108f:	41 55                	push   %r13
  401091:	41 54                	push   %r12
  401093:	55                   	push   %rbp
  401094:	53                   	push   %rbx
  401095:	41 89 fc             	mov    %edi,%r12d
  401098:	48 89 f3             	mov    %rsi,%rbx
  40109b:	48 c7 c6 e8 1e 40 00 	mov    $0x401ee8,%rsi
  4010a2:	bf 0b 00 00 00       	mov    $0xb,%edi
  4010a7:	e8 04 fc ff ff       	callq  400cb0 <signal@plt>
  4010ac:	48 c7 c6 94 1e 40 00 	mov    $0x401e94,%rsi
  4010b3:	bf 07 00 00 00       	mov    $0x7,%edi
  4010b8:	e8 f3 fb ff ff       	callq  400cb0 <signal@plt>
  4010bd:	48 c7 c6 3c 1f 40 00 	mov    $0x401f3c,%rsi
  4010c4:	bf 04 00 00 00       	mov    $0x4,%edi
  4010c9:	e8 e2 fb ff ff       	callq  400cb0 <signal@plt>
  4010ce:	83 3d 33 44 20 00 00 	cmpl   $0x0,0x204433(%rip)        # 605508 <is_checker>
  4010d5:	75 58                	jne    40112f <main+0xa2>
  4010d7:	48 8d 2d 67 1f 00 00 	lea    0x1f67(%rip),%rbp        # 403045 <_IO_stdin_used+0x1e5>
  4010de:	48 8b 05 bb 43 20 00 	mov    0x2043bb(%rip),%rax        # 6054a0 <stdin@@GLIBC_2.2.5>
  4010e5:	48 89 05 04 44 20 00 	mov    %rax,0x204404(%rip)        # 6054f0 <infile>
  4010ec:	41 bd 00 00 00 00    	mov    $0x0,%r13d
  4010f2:	41 be 00 00 00 00    	mov    $0x0,%r14d
  4010f8:	48 89 ea             	mov    %rbp,%rdx
  4010fb:	48 89 de             	mov    %rbx,%rsi
  4010fe:	44 89 e7             	mov    %r12d,%edi
  401101:	e8 6a fc ff ff       	callq  400d70 <getopt@plt>
  401106:	3c ff                	cmp    $0xff,%al
  401108:	0f 84 f8 00 00 00    	je     401206 <main+0x179>
  40110e:	0f be f0             	movsbl %al,%esi
  401111:	83 e8 61             	sub    $0x61,%eax
  401114:	3c 10                	cmp    $0x10,%al
  401116:	0f 87 d1 00 00 00    	ja     4011ed <main+0x160>
  40111c:	0f b6 c0             	movzbl %al,%eax
  40111f:	48 8d 15 6a 1f 00 00 	lea    0x1f6a(%rip),%rdx        # 403090 <_IO_stdin_used+0x230>
  401126:	48 63 04 82          	movslq (%rdx,%rax,4),%rax
  40112a:	48 01 d0             	add    %rdx,%rax
  40112d:	ff e0                	jmpq   *%rax
  40112f:	48 c7 c6 90 1f 40 00 	mov    $0x401f90,%rsi
  401136:	bf 0e 00 00 00       	mov    $0xe,%edi
  40113b:	e8 70 fb ff ff       	callq  400cb0 <signal@plt>
  401140:	bf 05 00 00 00       	mov    $0x5,%edi
  401145:	e8 36 fb ff ff       	callq  400c80 <alarm@plt>
  40114a:	48 8d 2d f9 1e 00 00 	lea    0x1ef9(%rip),%rbp        # 40304a <_IO_stdin_used+0x1ea>
  401151:	eb 8b                	jmp    4010de <main+0x51>
  401153:	48 8b 3b             	mov    (%rbx),%rdi
  401156:	e8 7b fd ff ff       	callq  400ed6 <usage>
  40115b:	48 8d 35 73 21 00 00 	lea    0x2173(%rip),%rsi        # 4032d5 <_IO_stdin_used+0x475>
  401162:	48 8b 3d 3f 43 20 00 	mov    0x20433f(%rip),%rdi        # 6054a8 <optarg@@GLIBC_2.2.5>
  401169:	e8 f2 fb ff ff       	callq  400d60 <fopen@plt>
  40116e:	48 89 05 7b 43 20 00 	mov    %rax,0x20437b(%rip)        # 6054f0 <infile>
  401175:	48 85 c0             	test   %rax,%rax
  401178:	0f 85 7a ff ff ff    	jne    4010f8 <main+0x6b>
  40117e:	48 8b 15 23 43 20 00 	mov    0x204323(%rip),%rdx        # 6054a8 <optarg@@GLIBC_2.2.5>
  401185:	48 8d 35 c6 1e 00 00 	lea    0x1ec6(%rip),%rsi        # 403052 <_IO_stdin_used+0x1f2>
  40118c:	48 8b 3d 2d 43 20 00 	mov    0x20432d(%rip),%rdi        # 6054c0 <stderr@@GLIBC_2.2.5>
  401193:	e8 38 fb ff ff       	callq  400cd0 <fprintf@plt>
  401198:	b8 01 00 00 00       	mov    $0x1,%eax
  40119d:	e9 c9 00 00 00       	jmpq   40126b <main+0x1de>
  4011a2:	ba 10 00 00 00       	mov    $0x10,%edx
  4011a7:	be 00 00 00 00       	mov    $0x0,%esi
  4011ac:	48 8b 3d f5 42 20 00 	mov    0x2042f5(%rip),%rdi        # 6054a8 <optarg@@GLIBC_2.2.5>
  4011b3:	e8 c8 fb ff ff       	callq  400d80 <strtoul@plt>
  4011b8:	41 89 c6             	mov    %eax,%r14d
  4011bb:	e9 38 ff ff ff       	jmpq   4010f8 <main+0x6b>
  4011c0:	ba 0a 00 00 00       	mov    $0xa,%edx
  4011c5:	be 00 00 00 00       	mov    $0x0,%esi
  4011ca:	48 8b 3d d7 42 20 00 	mov    0x2042d7(%rip),%rdi        # 6054a8 <optarg@@GLIBC_2.2.5>
  4011d1:	e8 0a fb ff ff       	callq  400ce0 <strtol@plt>
  4011d6:	41 89 c5             	mov    %eax,%r13d
  4011d9:	e9 1a ff ff ff       	jmpq   4010f8 <main+0x6b>
  4011de:	c7 05 a0 42 20 00 00 	movl   $0x0,0x2042a0(%rip)        # 605488 <notify>
  4011e5:	00 00 00 
  4011e8:	e9 0b ff ff ff       	jmpq   4010f8 <main+0x6b>
  4011ed:	48 8d 3d 7b 1e 00 00 	lea    0x1e7b(%rip),%rdi        # 40306f <_IO_stdin_used+0x20f>
  4011f4:	b8 00 00 00 00       	mov    $0x0,%eax
  4011f9:	e8 62 fa ff ff       	callq  400c60 <printf@plt>
  4011fe:	48 8b 3b             	mov    (%rbx),%rdi
  401201:	e8 d0 fc ff ff       	callq  400ed6 <usage>
  401206:	be 01 00 00 00       	mov    $0x1,%esi
  40120b:	44 89 ef             	mov    %r13d,%edi
  40120e:	e8 55 fd ff ff       	callq  400f68 <initialize_target>
  401213:	83 3d ee 42 20 00 00 	cmpl   $0x0,0x2042ee(%rip)        # 605508 <is_checker>
  40121a:	74 27                	je     401243 <main+0x1b6>
  40121c:	44 3b 35 dd 42 20 00 	cmp    0x2042dd(%rip),%r14d        # 605500 <authkey>
  401223:	74 1e                	je     401243 <main+0x1b6>
  401225:	44 89 f6             	mov    %r14d,%esi
  401228:	48 8d 3d 79 1d 00 00 	lea    0x1d79(%rip),%rdi        # 402fa8 <_IO_stdin_used+0x148>
  40122f:	b8 00 00 00 00       	mov    $0x0,%eax
  401234:	e8 27 fa ff ff       	callq  400c60 <printf@plt>
  401239:	b8 00 00 00 00       	mov    $0x0,%eax
  40123e:	e8 21 09 00 00       	callq  401b64 <check_fail>
  401243:	8b 35 bb 42 20 00    	mov    0x2042bb(%rip),%esi        # 605504 <cookie>
  401249:	48 8d 3d 32 1e 00 00 	lea    0x1e32(%rip),%rdi        # 403082 <_IO_stdin_used+0x222>
  401250:	b8 00 00 00 00       	mov    $0x0,%eax
  401255:	e8 06 fa ff ff       	callq  400c60 <printf@plt>
  40125a:	48 8b 3d 1f 42 20 00 	mov    0x20421f(%rip),%rdi        # 605480 <buf_offset>
  401261:	e8 7c 0d 00 00       	callq  401fe2 <launch>
  401266:	b8 00 00 00 00       	mov    $0x0,%eax
  40126b:	5b                   	pop    %rbx
  40126c:	5d                   	pop    %rbp
  40126d:	41 5c                	pop    %r12
  40126f:	41 5d                	pop    %r13
  401271:	41 5e                	pop    %r14
  401273:	c3                   	retq   

0000000000401274 <scramble>:
  401274:	b8 00 00 00 00       	mov    $0x0,%eax
  401279:	eb 11                	jmp    40128c <scramble+0x18>
  40127b:	69 d0 99 fa 00 00    	imul   $0xfa99,%eax,%edx
  401281:	01 fa                	add    %edi,%edx
  401283:	89 c1                	mov    %eax,%ecx
  401285:	89 54 8c d0          	mov    %edx,-0x30(%rsp,%rcx,4)
  401289:	83 c0 01             	add    $0x1,%eax
  40128c:	83 f8 09             	cmp    $0x9,%eax
  40128f:	76 ea                	jbe    40127b <scramble+0x7>
  401291:	8b 44 24 d0          	mov    -0x30(%rsp),%eax
  401295:	69 c0 be 47 00 00    	imul   $0x47be,%eax,%eax
  40129b:	89 44 24 d0          	mov    %eax,-0x30(%rsp)
  40129f:	8b 44 24 e0          	mov    -0x20(%rsp),%eax
  4012a3:	69 c0 5c aa 00 00    	imul   $0xaa5c,%eax,%eax
  4012a9:	89 44 24 e0          	mov    %eax,-0x20(%rsp)
  4012ad:	8b 44 24 d8          	mov    -0x28(%rsp),%eax
  4012b1:	69 c0 b8 49 00 00    	imul   $0x49b8,%eax,%eax
  4012b7:	89 44 24 d8          	mov    %eax,-0x28(%rsp)
  4012bb:	8b 44 24 dc          	mov    -0x24(%rsp),%eax
  4012bf:	69 c0 0b ed 00 00    	imul   $0xed0b,%eax,%eax
  4012c5:	89 44 24 dc          	mov    %eax,-0x24(%rsp)
  4012c9:	8b 44 24 e0          	mov    -0x20(%rsp),%eax
  4012cd:	69 c0 00 61 00 00    	imul   $0x6100,%eax,%eax
  4012d3:	89 44 24 e0          	mov    %eax,-0x20(%rsp)
  4012d7:	8b 44 24 e0          	mov    -0x20(%rsp),%eax
  4012db:	69 c0 78 08 00 00    	imul   $0x878,%eax,%eax
  4012e1:	89 44 24 e0          	mov    %eax,-0x20(%rsp)
  4012e5:	8b 44 24 d8          	mov    -0x28(%rsp),%eax
  4012e9:	69 c0 92 cf 00 00    	imul   $0xcf92,%eax,%eax
  4012ef:	89 44 24 d8          	mov    %eax,-0x28(%rsp)
  4012f3:	8b 44 24 f4          	mov    -0xc(%rsp),%eax
  4012f7:	69 c0 01 cc 00 00    	imul   $0xcc01,%eax,%eax
  4012fd:	89 44 24 f4          	mov    %eax,-0xc(%rsp)
  401301:	8b 44 24 f0          	mov    -0x10(%rsp),%eax
  401305:	69 c0 33 93 00 00    	imul   $0x9333,%eax,%eax
  40130b:	89 44 24 f0          	mov    %eax,-0x10(%rsp)
  40130f:	8b 44 24 e8          	mov    -0x18(%rsp),%eax
  401313:	69 c0 a7 8e 00 00    	imul   $0x8ea7,%eax,%eax
  401319:	89 44 24 e8          	mov    %eax,-0x18(%rsp)
  40131d:	8b 44 24 dc          	mov    -0x24(%rsp),%eax
  401321:	69 c0 63 1b 00 00    	imul   $0x1b63,%eax,%eax
  401327:	89 44 24 dc          	mov    %eax,-0x24(%rsp)
  40132b:	8b 44 24 e4          	mov    -0x1c(%rsp),%eax
  40132f:	69 c0 61 da 00 00    	imul   $0xda61,%eax,%eax
  401335:	89 44 24 e4          	mov    %eax,-0x1c(%rsp)
  401339:	8b 44 24 d8          	mov    -0x28(%rsp),%eax
  40133d:	69 c0 d4 16 00 00    	imul   $0x16d4,%eax,%eax
  401343:	89 44 24 d8          	mov    %eax,-0x28(%rsp)
  401347:	8b 44 24 dc          	mov    -0x24(%rsp),%eax
  40134b:	69 c0 24 33 00 00    	imul   $0x3324,%eax,%eax
  401351:	89 44 24 dc          	mov    %eax,-0x24(%rsp)
  401355:	8b 44 24 e4          	mov    -0x1c(%rsp),%eax
  401359:	69 c0 fc b3 00 00    	imul   $0xb3fc,%eax,%eax
  40135f:	89 44 24 e4          	mov    %eax,-0x1c(%rsp)
  401363:	8b 44 24 e8          	mov    -0x18(%rsp),%eax
  401367:	69 c0 f6 96 00 00    	imul   $0x96f6,%eax,%eax
  40136d:	89 44 24 e8          	mov    %eax,-0x18(%rsp)
  401371:	8b 44 24 f0          	mov    -0x10(%rsp),%eax
  401375:	69 c0 51 d4 00 00    	imul   $0xd451,%eax,%eax
  40137b:	89 44 24 f0          	mov    %eax,-0x10(%rsp)
  40137f:	8b 44 24 d4          	mov    -0x2c(%rsp),%eax
  401383:	69 c0 a7 42 00 00    	imul   $0x42a7,%eax,%eax
  401389:	89 44 24 d4          	mov    %eax,-0x2c(%rsp)
  40138d:	8b 44 24 e8          	mov    -0x18(%rsp),%eax
  401391:	69 c0 66 b5 00 00    	imul   $0xb566,%eax,%eax
  401397:	89 44 24 e8          	mov    %eax,-0x18(%rsp)
  40139b:	8b 44 24 e0          	mov    -0x20(%rsp),%eax
  40139f:	69 c0 96 7d 00 00    	imul   $0x7d96,%eax,%eax
  4013a5:	89 44 24 e0          	mov    %eax,-0x20(%rsp)
  4013a9:	8b 44 24 f4          	mov    -0xc(%rsp),%eax
  4013ad:	69 c0 be e8 00 00    	imul   $0xe8be,%eax,%eax
  4013b3:	89 44 24 f4          	mov    %eax,-0xc(%rsp)
  4013b7:	8b 44 24 e8          	mov    -0x18(%rsp),%eax
  4013bb:	69 c0 5b c6 00 00    	imul   $0xc65b,%eax,%eax
  4013c1:	89 44 24 e8          	mov    %eax,-0x18(%rsp)
  4013c5:	8b 44 24 f0          	mov    -0x10(%rsp),%eax
  4013c9:	69 c0 1d c8 00 00    	imul   $0xc81d,%eax,%eax
  4013cf:	89 44 24 f0          	mov    %eax,-0x10(%rsp)
  4013d3:	8b 44 24 ec          	mov    -0x14(%rsp),%eax
  4013d7:	69 c0 7c 81 00 00    	imul   $0x817c,%eax,%eax
  4013dd:	89 44 24 ec          	mov    %eax,-0x14(%rsp)
  4013e1:	8b 44 24 ec          	mov    -0x14(%rsp),%eax
  4013e5:	69 c0 5e a6 00 00    	imul   $0xa65e,%eax,%eax
  4013eb:	89 44 24 ec          	mov    %eax,-0x14(%rsp)
  4013ef:	8b 44 24 dc          	mov    -0x24(%rsp),%eax
  4013f3:	69 c0 ed ab 00 00    	imul   $0xabed,%eax,%eax
  4013f9:	89 44 24 dc          	mov    %eax,-0x24(%rsp)
  4013fd:	8b 44 24 e8          	mov    -0x18(%rsp),%eax
  401401:	69 c0 68 99 00 00    	imul   $0x9968,%eax,%eax
  401407:	89 44 24 e8          	mov    %eax,-0x18(%rsp)
  40140b:	8b 44 24 f4          	mov    -0xc(%rsp),%eax
  40140f:	69 c0 c8 51 00 00    	imul   $0x51c8,%eax,%eax
  401415:	89 44 24 f4          	mov    %eax,-0xc(%rsp)
  401419:	8b 44 24 e0          	mov    -0x20(%rsp),%eax
  40141d:	69 c0 9f 62 00 00    	imul   $0x629f,%eax,%eax
  401423:	89 44 24 e0          	mov    %eax,-0x20(%rsp)
  401427:	8b 44 24 dc          	mov    -0x24(%rsp),%eax
  40142b:	69 c0 9a 4c 00 00    	imul   $0x4c9a,%eax,%eax
  401431:	89 44 24 dc          	mov    %eax,-0x24(%rsp)
  401435:	8b 44 24 e8          	mov    -0x18(%rsp),%eax
  401439:	69 c0 2d a0 00 00    	imul   $0xa02d,%eax,%eax
  40143f:	89 44 24 e8          	mov    %eax,-0x18(%rsp)
  401443:	8b 44 24 e8          	mov    -0x18(%rsp),%eax
  401447:	69 c0 55 12 00 00    	imul   $0x1255,%eax,%eax
  40144d:	89 44 24 e8          	mov    %eax,-0x18(%rsp)
  401451:	8b 44 24 e0          	mov    -0x20(%rsp),%eax
  401455:	69 c0 e2 24 00 00    	imul   $0x24e2,%eax,%eax
  40145b:	89 44 24 e0          	mov    %eax,-0x20(%rsp)
  40145f:	8b 44 24 f4          	mov    -0xc(%rsp),%eax
  401463:	69 c0 87 92 00 00    	imul   $0x9287,%eax,%eax
  401469:	89 44 24 f4          	mov    %eax,-0xc(%rsp)
  40146d:	8b 44 24 e4          	mov    -0x1c(%rsp),%eax
  401471:	69 c0 ae 84 00 00    	imul   $0x84ae,%eax,%eax
  401477:	89 44 24 e4          	mov    %eax,-0x1c(%rsp)
  40147b:	8b 44 24 dc          	mov    -0x24(%rsp),%eax
  40147f:	69 c0 af f0 00 00    	imul   $0xf0af,%eax,%eax
  401485:	89 44 24 dc          	mov    %eax,-0x24(%rsp)
  401489:	8b 44 24 e8          	mov    -0x18(%rsp),%eax
  40148d:	69 c0 2c 96 00 00    	imul   $0x962c,%eax,%eax
  401493:	89 44 24 e8          	mov    %eax,-0x18(%rsp)
  401497:	8b 44 24 f0          	mov    -0x10(%rsp),%eax
  40149b:	69 c0 bd 25 00 00    	imul   $0x25bd,%eax,%eax
  4014a1:	89 44 24 f0          	mov    %eax,-0x10(%rsp)
  4014a5:	8b 44 24 f4          	mov    -0xc(%rsp),%eax
  4014a9:	69 c0 66 49 00 00    	imul   $0x4966,%eax,%eax
  4014af:	89 44 24 f4          	mov    %eax,-0xc(%rsp)
  4014b3:	8b 44 24 e0          	mov    -0x20(%rsp),%eax
  4014b7:	69 c0 9b b9 00 00    	imul   $0xb99b,%eax,%eax
  4014bd:	89 44 24 e0          	mov    %eax,-0x20(%rsp)
  4014c1:	8b 44 24 d8          	mov    -0x28(%rsp),%eax
  4014c5:	69 c0 5d b7 00 00    	imul   $0xb75d,%eax,%eax
  4014cb:	89 44 24 d8          	mov    %eax,-0x28(%rsp)
  4014cf:	8b 44 24 d4          	mov    -0x2c(%rsp),%eax
  4014d3:	69 c0 85 b1 00 00    	imul   $0xb185,%eax,%eax
  4014d9:	89 44 24 d4          	mov    %eax,-0x2c(%rsp)
  4014dd:	8b 44 24 d4          	mov    -0x2c(%rsp),%eax
  4014e1:	69 c0 d6 eb 00 00    	imul   $0xebd6,%eax,%eax
  4014e7:	89 44 24 d4          	mov    %eax,-0x2c(%rsp)
  4014eb:	8b 44 24 dc          	mov    -0x24(%rsp),%eax
  4014ef:	69 c0 02 01 00 00    	imul   $0x102,%eax,%eax
  4014f5:	89 44 24 dc          	mov    %eax,-0x24(%rsp)
  4014f9:	8b 44 24 d8          	mov    -0x28(%rsp),%eax
  4014fd:	69 c0 39 88 00 00    	imul   $0x8839,%eax,%eax
  401503:	89 44 24 d8          	mov    %eax,-0x28(%rsp)
  401507:	8b 44 24 e8          	mov    -0x18(%rsp),%eax
  40150b:	69 c0 10 65 00 00    	imul   $0x6510,%eax,%eax
  401511:	89 44 24 e8          	mov    %eax,-0x18(%rsp)
  401515:	8b 44 24 f0          	mov    -0x10(%rsp),%eax
  401519:	69 c0 2c 31 00 00    	imul   $0x312c,%eax,%eax
  40151f:	89 44 24 f0          	mov    %eax,-0x10(%rsp)
  401523:	8b 44 24 ec          	mov    -0x14(%rsp),%eax
  401527:	69 c0 e4 9c 00 00    	imul   $0x9ce4,%eax,%eax
  40152d:	89 44 24 ec          	mov    %eax,-0x14(%rsp)
  401531:	8b 44 24 dc          	mov    -0x24(%rsp),%eax
  401535:	69 c0 62 cc 00 00    	imul   $0xcc62,%eax,%eax
  40153b:	89 44 24 dc          	mov    %eax,-0x24(%rsp)
  40153f:	8b 44 24 ec          	mov    -0x14(%rsp),%eax
  401543:	69 c0 58 30 00 00    	imul   $0x3058,%eax,%eax
  401549:	89 44 24 ec          	mov    %eax,-0x14(%rsp)
  40154d:	8b 44 24 e4          	mov    -0x1c(%rsp),%eax
  401551:	69 c0 89 3f 00 00    	imul   $0x3f89,%eax,%eax
  401557:	89 44 24 e4          	mov    %eax,-0x1c(%rsp)
  40155b:	8b 44 24 ec          	mov    -0x14(%rsp),%eax
  40155f:	69 c0 7e be 00 00    	imul   $0xbe7e,%eax,%eax
  401565:	89 44 24 ec          	mov    %eax,-0x14(%rsp)
  401569:	8b 44 24 dc          	mov    -0x24(%rsp),%eax
  40156d:	69 c0 12 d8 00 00    	imul   $0xd812,%eax,%eax
  401573:	89 44 24 dc          	mov    %eax,-0x24(%rsp)
  401577:	8b 44 24 d0          	mov    -0x30(%rsp),%eax
  40157b:	69 c0 ff 33 00 00    	imul   $0x33ff,%eax,%eax
  401581:	89 44 24 d0          	mov    %eax,-0x30(%rsp)
  401585:	8b 44 24 e0          	mov    -0x20(%rsp),%eax
  401589:	69 c0 75 8b 00 00    	imul   $0x8b75,%eax,%eax
  40158f:	89 44 24 e0          	mov    %eax,-0x20(%rsp)
  401593:	8b 44 24 e8          	mov    -0x18(%rsp),%eax
  401597:	69 c0 3d 11 00 00    	imul   $0x113d,%eax,%eax
  40159d:	89 44 24 e8          	mov    %eax,-0x18(%rsp)
  4015a1:	8b 44 24 f0          	mov    -0x10(%rsp),%eax
  4015a5:	69 c0 22 53 00 00    	imul   $0x5322,%eax,%eax
  4015ab:	89 44 24 f0          	mov    %eax,-0x10(%rsp)
  4015af:	8b 44 24 f4          	mov    -0xc(%rsp),%eax
  4015b3:	69 c0 97 93 00 00    	imul   $0x9397,%eax,%eax
  4015b9:	89 44 24 f4          	mov    %eax,-0xc(%rsp)
  4015bd:	8b 44 24 d0          	mov    -0x30(%rsp),%eax
  4015c1:	69 c0 10 c6 00 00    	imul   $0xc610,%eax,%eax
  4015c7:	89 44 24 d0          	mov    %eax,-0x30(%rsp)
  4015cb:	8b 44 24 ec          	mov    -0x14(%rsp),%eax
  4015cf:	69 c0 6e 8d 00 00    	imul   $0x8d6e,%eax,%eax
  4015d5:	89 44 24 ec          	mov    %eax,-0x14(%rsp)
  4015d9:	8b 44 24 d4          	mov    -0x2c(%rsp),%eax
  4015dd:	69 c0 36 e2 00 00    	imul   $0xe236,%eax,%eax
  4015e3:	89 44 24 d4          	mov    %eax,-0x2c(%rsp)
  4015e7:	8b 44 24 e4          	mov    -0x1c(%rsp),%eax
  4015eb:	69 c0 b0 76 00 00    	imul   $0x76b0,%eax,%eax
  4015f1:	89 44 24 e4          	mov    %eax,-0x1c(%rsp)
  4015f5:	8b 44 24 d8          	mov    -0x28(%rsp),%eax
  4015f9:	69 c0 e5 69 00 00    	imul   $0x69e5,%eax,%eax
  4015ff:	89 44 24 d8          	mov    %eax,-0x28(%rsp)
  401603:	8b 44 24 e4          	mov    -0x1c(%rsp),%eax
  401607:	69 c0 72 69 00 00    	imul   $0x6972,%eax,%eax
  40160d:	89 44 24 e4          	mov    %eax,-0x1c(%rsp)
  401611:	8b 44 24 d0          	mov    -0x30(%rsp),%eax
  401615:	69 c0 00 43 00 00    	imul   $0x4300,%eax,%eax
  40161b:	89 44 24 d0          	mov    %eax,-0x30(%rsp)
  40161f:	8b 44 24 f4          	mov    -0xc(%rsp),%eax
  401623:	69 c0 58 87 00 00    	imul   $0x8758,%eax,%eax
  401629:	89 44 24 f4          	mov    %eax,-0xc(%rsp)
  40162d:	8b 44 24 e8          	mov    -0x18(%rsp),%eax
  401631:	69 c0 d1 ba 00 00    	imul   $0xbad1,%eax,%eax
  401637:	89 44 24 e8          	mov    %eax,-0x18(%rsp)
  40163b:	8b 44 24 f4          	mov    -0xc(%rsp),%eax
  40163f:	69 c0 3e 58 00 00    	imul   $0x583e,%eax,%eax
  401645:	89 44 24 f4          	mov    %eax,-0xc(%rsp)
  401649:	8b 44 24 e0          	mov    -0x20(%rsp),%eax
  40164d:	69 c0 12 2a 00 00    	imul   $0x2a12,%eax,%eax
  401653:	89 44 24 e0          	mov    %eax,-0x20(%rsp)
  401657:	8b 44 24 f4          	mov    -0xc(%rsp),%eax
  40165b:	69 c0 5c b4 00 00    	imul   $0xb45c,%eax,%eax
  401661:	89 44 24 f4          	mov    %eax,-0xc(%rsp)
  401665:	8b 44 24 d4          	mov    -0x2c(%rsp),%eax
  401669:	69 c0 d8 79 00 00    	imul   $0x79d8,%eax,%eax
  40166f:	89 44 24 d4          	mov    %eax,-0x2c(%rsp)
  401673:	8b 44 24 f4          	mov    -0xc(%rsp),%eax
  401677:	69 c0 59 f8 00 00    	imul   $0xf859,%eax,%eax
  40167d:	89 44 24 f4          	mov    %eax,-0xc(%rsp)
  401681:	8b 44 24 e0          	mov    -0x20(%rsp),%eax
  401685:	69 c0 5b 88 00 00    	imul   $0x885b,%eax,%eax
  40168b:	89 44 24 e0          	mov    %eax,-0x20(%rsp)
  40168f:	8b 44 24 d4          	mov    -0x2c(%rsp),%eax
  401693:	69 c0 f4 0b 00 00    	imul   $0xbf4,%eax,%eax
  401699:	89 44 24 d4          	mov    %eax,-0x2c(%rsp)
  40169d:	8b 44 24 e0          	mov    -0x20(%rsp),%eax
  4016a1:	69 c0 8a 20 00 00    	imul   $0x208a,%eax,%eax
  4016a7:	89 44 24 e0          	mov    %eax,-0x20(%rsp)
  4016ab:	8b 44 24 f4          	mov    -0xc(%rsp),%eax
  4016af:	69 c0 b5 9c 00 00    	imul   $0x9cb5,%eax,%eax
  4016b5:	89 44 24 f4          	mov    %eax,-0xc(%rsp)
  4016b9:	8b 44 24 ec          	mov    -0x14(%rsp),%eax
  4016bd:	69 c0 e1 8b 00 00    	imul   $0x8be1,%eax,%eax
  4016c3:	89 44 24 ec          	mov    %eax,-0x14(%rsp)
  4016c7:	8b 44 24 e8          	mov    -0x18(%rsp),%eax
  4016cb:	69 c0 24 16 00 00    	imul   $0x1624,%eax,%eax
  4016d1:	89 44 24 e8          	mov    %eax,-0x18(%rsp)
  4016d5:	8b 44 24 f0          	mov    -0x10(%rsp),%eax
  4016d9:	69 c0 f9 26 00 00    	imul   $0x26f9,%eax,%eax
  4016df:	89 44 24 f0          	mov    %eax,-0x10(%rsp)
  4016e3:	8b 44 24 ec          	mov    -0x14(%rsp),%eax
  4016e7:	69 c0 0e 2c 00 00    	imul   $0x2c0e,%eax,%eax
  4016ed:	89 44 24 ec          	mov    %eax,-0x14(%rsp)
  4016f1:	8b 44 24 f0          	mov    -0x10(%rsp),%eax
  4016f5:	69 c0 60 19 00 00    	imul   $0x1960,%eax,%eax
  4016fb:	89 44 24 f0          	mov    %eax,-0x10(%rsp)
  4016ff:	8b 44 24 ec          	mov    -0x14(%rsp),%eax
  401703:	69 c0 82 ec 00 00    	imul   $0xec82,%eax,%eax
  401709:	89 44 24 ec          	mov    %eax,-0x14(%rsp)
  40170d:	8b 44 24 e4          	mov    -0x1c(%rsp),%eax
  401711:	69 c0 3d f9 00 00    	imul   $0xf93d,%eax,%eax
  401717:	89 44 24 e4          	mov    %eax,-0x1c(%rsp)
  40171b:	8b 44 24 f4          	mov    -0xc(%rsp),%eax
  40171f:	69 c0 15 67 00 00    	imul   $0x6715,%eax,%eax
  401725:	89 44 24 f4          	mov    %eax,-0xc(%rsp)
  401729:	8b 44 24 dc          	mov    -0x24(%rsp),%eax
  40172d:	69 c0 ff d0 00 00    	imul   $0xd0ff,%eax,%eax
  401733:	89 44 24 dc          	mov    %eax,-0x24(%rsp)
  401737:	8b 44 24 f4          	mov    -0xc(%rsp),%eax
  40173b:	69 c0 d6 d8 00 00    	imul   $0xd8d6,%eax,%eax
  401741:	89 44 24 f4          	mov    %eax,-0xc(%rsp)
  401745:	8b 44 24 e4          	mov    -0x1c(%rsp),%eax
  401749:	69 c0 0a e1 00 00    	imul   $0xe10a,%eax,%eax
  40174f:	89 44 24 e4          	mov    %eax,-0x1c(%rsp)
  401753:	8b 44 24 e4          	mov    -0x1c(%rsp),%eax
  401757:	69 c0 d2 17 00 00    	imul   $0x17d2,%eax,%eax
  40175d:	89 44 24 e4          	mov    %eax,-0x1c(%rsp)
  401761:	8b 44 24 d0          	mov    -0x30(%rsp),%eax
  401765:	69 c0 1f 5d 00 00    	imul   $0x5d1f,%eax,%eax
  40176b:	89 44 24 d0          	mov    %eax,-0x30(%rsp)
  40176f:	8b 44 24 e0          	mov    -0x20(%rsp),%eax
  401773:	69 c0 d1 b7 00 00    	imul   $0xb7d1,%eax,%eax
  401779:	89 44 24 e0          	mov    %eax,-0x20(%rsp)
  40177d:	8b 44 24 f0          	mov    -0x10(%rsp),%eax
  401781:	69 c0 29 bd 00 00    	imul   $0xbd29,%eax,%eax
  401787:	89 44 24 f0          	mov    %eax,-0x10(%rsp)
  40178b:	8b 44 24 d8          	mov    -0x28(%rsp),%eax
  40178f:	69 c0 6b 80 00 00    	imul   $0x806b,%eax,%eax
  401795:	89 44 24 d8          	mov    %eax,-0x28(%rsp)
  401799:	8b 44 24 d4          	mov    -0x2c(%rsp),%eax
  40179d:	69 c0 eb 67 00 00    	imul   $0x67eb,%eax,%eax
  4017a3:	89 44 24 d4          	mov    %eax,-0x2c(%rsp)
  4017a7:	8b 44 24 f0          	mov    -0x10(%rsp),%eax
  4017ab:	69 c0 d1 3e 00 00    	imul   $0x3ed1,%eax,%eax
  4017b1:	89 44 24 f0          	mov    %eax,-0x10(%rsp)
  4017b5:	8b 44 24 e4          	mov    -0x1c(%rsp),%eax
  4017b9:	69 c0 25 16 00 00    	imul   $0x1625,%eax,%eax
  4017bf:	89 44 24 e4          	mov    %eax,-0x1c(%rsp)
  4017c3:	8b 44 24 d4          	mov    -0x2c(%rsp),%eax
  4017c7:	69 c0 de f8 00 00    	imul   $0xf8de,%eax,%eax
  4017cd:	89 44 24 d4          	mov    %eax,-0x2c(%rsp)
  4017d1:	8b 44 24 e0          	mov    -0x20(%rsp),%eax
  4017d5:	69 c0 45 1e 00 00    	imul   $0x1e45,%eax,%eax
  4017db:	89 44 24 e0          	mov    %eax,-0x20(%rsp)
  4017df:	8b 44 24 d0          	mov    -0x30(%rsp),%eax
  4017e3:	69 c0 b6 03 00 00    	imul   $0x3b6,%eax,%eax
  4017e9:	89 44 24 d0          	mov    %eax,-0x30(%rsp)
  4017ed:	8b 44 24 d4          	mov    -0x2c(%rsp),%eax
  4017f1:	69 c0 21 2a 00 00    	imul   $0x2a21,%eax,%eax
  4017f7:	89 44 24 d4          	mov    %eax,-0x2c(%rsp)
  4017fb:	8b 44 24 d0          	mov    -0x30(%rsp),%eax
  4017ff:	69 c0 d1 3a 00 00    	imul   $0x3ad1,%eax,%eax
  401805:	89 44 24 d0          	mov    %eax,-0x30(%rsp)
  401809:	ba 00 00 00 00       	mov    $0x0,%edx
  40180e:	b8 00 00 00 00       	mov    $0x0,%eax
  401813:	eb 0b                	jmp    401820 <scramble+0x5ac>
  401815:	89 d1                	mov    %edx,%ecx
  401817:	8b 4c 8c d0          	mov    -0x30(%rsp,%rcx,4),%ecx
  40181b:	01 c8                	add    %ecx,%eax
  40181d:	83 c2 01             	add    $0x1,%edx
  401820:	83 fa 09             	cmp    $0x9,%edx
  401823:	76 f0                	jbe    401815 <scramble+0x5a1>
  401825:	f3 c3                	repz retq 

0000000000401827 <getbuf>:
  401827:	48 83 ec 38          	sub    $0x38,%rsp
  40182b:	48 89 e7             	mov    %rsp,%rdi
  40182e:	e8 64 03 00 00       	callq  401b97 <Gets>
  401833:	b8 01 00 00 00       	mov    $0x1,%eax
  401838:	48 83 c4 38          	add    $0x38,%rsp
  40183c:	c3                   	retq   

000000000040183d <touch1>:
  40183d:	48 83 ec 08          	sub    $0x8,%rsp
  401841:	c7 05 b1 3c 20 00 01 	movl   $0x1,0x203cb1(%rip)        # 6054fc <vlevel>
  401848:	00 00 00 
  40184b:	48 8d 3d dc 18 00 00 	lea    0x18dc(%rip),%rdi        # 40312e <_IO_stdin_used+0x2ce>
  401852:	e8 d9 f3 ff ff       	callq  400c30 <puts@plt>
  401857:	bf 01 00 00 00       	mov    $0x1,%edi
  40185c:	e8 4d 05 00 00       	callq  401dae <validate>
  401861:	bf 00 00 00 00       	mov    $0x0,%edi
  401866:	e8 45 f5 ff ff       	callq  400db0 <exit@plt>

000000000040186b <touch2>:
  40186b:	48 83 ec 08          	sub    $0x8,%rsp
  40186f:	89 fe                	mov    %edi,%esi
  401871:	c7 05 81 3c 20 00 02 	movl   $0x2,0x203c81(%rip)        # 6054fc <vlevel>
  401878:	00 00 00 
  40187b:	39 3d 83 3c 20 00    	cmp    %edi,0x203c83(%rip)        # 605504 <cookie>
  401881:	74 25                	je     4018a8 <touch2+0x3d>
  401883:	48 8d 3d ee 18 00 00 	lea    0x18ee(%rip),%rdi        # 403178 <_IO_stdin_used+0x318>
  40188a:	b8 00 00 00 00       	mov    $0x0,%eax
  40188f:	e8 cc f3 ff ff       	callq  400c60 <printf@plt>
  401894:	bf 02 00 00 00       	mov    $0x2,%edi
  401899:	e8 ce 05 00 00       	callq  401e6c <fail>
  40189e:	bf 00 00 00 00       	mov    $0x0,%edi
  4018a3:	e8 08 f5 ff ff       	callq  400db0 <exit@plt>
  4018a8:	48 8d 3d a1 18 00 00 	lea    0x18a1(%rip),%rdi        # 403150 <_IO_stdin_used+0x2f0>
  4018af:	b8 00 00 00 00       	mov    $0x0,%eax
  4018b4:	e8 a7 f3 ff ff       	callq  400c60 <printf@plt>
  4018b9:	bf 02 00 00 00       	mov    $0x2,%edi
  4018be:	e8 eb 04 00 00       	callq  401dae <validate>
  4018c3:	eb d9                	jmp    40189e <touch2+0x33>

00000000004018c5 <hexmatch>:
  4018c5:	41 54                	push   %r12
  4018c7:	55                   	push   %rbp
  4018c8:	53                   	push   %rbx
  4018c9:	48 83 ec 70          	sub    $0x70,%rsp
  4018cd:	89 fd                	mov    %edi,%ebp
  4018cf:	48 89 f3             	mov    %rsi,%rbx
  4018d2:	e8 39 f4 ff ff       	callq  400d10 <random@plt>
  4018d7:	48 89 c1             	mov    %rax,%rcx
  4018da:	48 ba 0b d7 a3 70 3d 	movabs $0xa3d70a3d70a3d70b,%rdx
  4018e1:	0a d7 a3 
  4018e4:	48 f7 ea             	imul   %rdx
  4018e7:	48 01 ca             	add    %rcx,%rdx
  4018ea:	48 c1 fa 06          	sar    $0x6,%rdx
  4018ee:	48 89 c8             	mov    %rcx,%rax
  4018f1:	48 c1 f8 3f          	sar    $0x3f,%rax
  4018f5:	48 29 c2             	sub    %rax,%rdx
  4018f8:	48 8d 04 92          	lea    (%rdx,%rdx,4),%rax
  4018fc:	48 8d 14 80          	lea    (%rax,%rax,4),%rdx
  401900:	48 8d 04 95 00 00 00 	lea    0x0(,%rdx,4),%rax
  401907:	00 
  401908:	48 29 c1             	sub    %rax,%rcx
  40190b:	4c 8d 24 0c          	lea    (%rsp,%rcx,1),%r12
  40190f:	89 ea                	mov    %ebp,%edx
  401911:	48 8d 35 33 18 00 00 	lea    0x1833(%rip),%rsi        # 40314b <_IO_stdin_used+0x2eb>
  401918:	4c 89 e7             	mov    %r12,%rdi
  40191b:	b8 00 00 00 00       	mov    $0x0,%eax
  401920:	e8 7b f4 ff ff       	callq  400da0 <sprintf@plt>
  401925:	ba 09 00 00 00       	mov    $0x9,%edx
  40192a:	4c 89 e6             	mov    %r12,%rsi
  40192d:	48 89 df             	mov    %rbx,%rdi
  401930:	e8 db f2 ff ff       	callq  400c10 <strncmp@plt>
  401935:	85 c0                	test   %eax,%eax
  401937:	0f 94 c0             	sete   %al
  40193a:	0f b6 c0             	movzbl %al,%eax
  40193d:	48 83 c4 70          	add    $0x70,%rsp
  401941:	5b                   	pop    %rbx
  401942:	5d                   	pop    %rbp
  401943:	41 5c                	pop    %r12
  401945:	c3                   	retq   

0000000000401946 <touch3>:
  401946:	53                   	push   %rbx
  401947:	48 89 fb             	mov    %rdi,%rbx
  40194a:	c7 05 a8 3b 20 00 03 	movl   $0x3,0x203ba8(%rip)        # 6054fc <vlevel>
  401951:	00 00 00 
  401954:	48 89 fe             	mov    %rdi,%rsi
  401957:	8b 3d a7 3b 20 00    	mov    0x203ba7(%rip),%edi        # 605504 <cookie>
  40195d:	e8 63 ff ff ff       	callq  4018c5 <hexmatch>
  401962:	85 c0                	test   %eax,%eax
  401964:	74 28                	je     40198e <touch3+0x48>
  401966:	48 89 de             	mov    %rbx,%rsi
  401969:	48 8d 3d 30 18 00 00 	lea    0x1830(%rip),%rdi        # 4031a0 <_IO_stdin_used+0x340>
  401970:	b8 00 00 00 00       	mov    $0x0,%eax
  401975:	e8 e6 f2 ff ff       	callq  400c60 <printf@plt>
  40197a:	bf 03 00 00 00       	mov    $0x3,%edi
  40197f:	e8 2a 04 00 00       	callq  401dae <validate>
  401984:	bf 00 00 00 00       	mov    $0x0,%edi
  401989:	e8 22 f4 ff ff       	callq  400db0 <exit@plt>
  40198e:	48 89 de             	mov    %rbx,%rsi
  401991:	48 8d 3d 30 18 00 00 	lea    0x1830(%rip),%rdi        # 4031c8 <_IO_stdin_used+0x368>
  401998:	b8 00 00 00 00       	mov    $0x0,%eax
  40199d:	e8 be f2 ff ff       	callq  400c60 <printf@plt>
  4019a2:	bf 03 00 00 00       	mov    $0x3,%edi
  4019a7:	e8 c0 04 00 00       	callq  401e6c <fail>
  4019ac:	eb d6                	jmp    401984 <touch3+0x3e>

00000000004019ae <test>:
  4019ae:	48 83 ec 08          	sub    $0x8,%rsp
  4019b2:	b8 00 00 00 00       	mov    $0x0,%eax
  4019b7:	e8 6b fe ff ff       	callq  401827 <getbuf>
  4019bc:	89 c6                	mov    %eax,%esi
  4019be:	48 8d 3d 2b 18 00 00 	lea    0x182b(%rip),%rdi        # 4031f0 <_IO_stdin_used+0x390>
  4019c5:	b8 00 00 00 00       	mov    $0x0,%eax
  4019ca:	e8 91 f2 ff ff       	callq  400c60 <printf@plt>
  4019cf:	48 83 c4 08          	add    $0x8,%rsp
  4019d3:	c3                   	retq   

00000000004019d4 <start_farm>:
  4019d4:	b8 01 00 00 00       	mov    $0x1,%eax
  4019d9:	c3                   	retq   

00000000004019da <addval_383>:
  4019da:	8d 87 2d 58 90 90    	lea    -0x6f6fa7d3(%rdi),%eax
  4019e0:	c3                   	retq   

00000000004019e1 <addval_489>:
  4019e1:	8d 87 4c 89 c7 c3    	lea    -0x3c3876b4(%rdi),%eax
  4019e7:	c3                   	retq   

00000000004019e8 <setval_422>:
  4019e8:	c7 07 48 89 c7 c3    	movl   $0xc3c78948,(%rdi)
  4019ee:	c3                   	retq   

00000000004019ef <setval_159>:
  4019ef:	c7 07 58 94 90 90    	movl   $0x90909458,(%rdi)
  4019f5:	c3                   	retq   

00000000004019f6 <getval_304>:
  4019f6:	b8 de 07 0c 58       	mov    $0x580c07de,%eax
  4019fb:	c3                   	retq   

00000000004019fc <setval_268>:
  4019fc:	c7 07 58 90 94 c3    	movl   $0xc3949058,(%rdi)
  401a02:	c3                   	retq   

0000000000401a03 <getval_213>:
  401a03:	b8 48 89 c7 c7       	mov    $0xc7c78948,%eax
  401a08:	c3                   	retq   

0000000000401a09 <setval_313>:
  401a09:	c7 07 48 89 c7 c3    	movl   $0xc3c78948,(%rdi)
  401a0f:	c3                   	retq   

0000000000401a10 <mid_farm>:
  401a10:	b8 01 00 00 00       	mov    $0x1,%eax
  401a15:	c3                   	retq   

0000000000401a16 <add_xy>:
  401a16:	48 8d 04 37          	lea    (%rdi,%rsi,1),%rax
  401a1a:	c3                   	retq   

0000000000401a1b <setval_400>:
  401a1b:	c7 07 89 ca 18 d2    	movl   $0xd218ca89,(%rdi)
  401a21:	c3                   	retq   

0000000000401a22 <setval_292>:
  401a22:	c7 07 89 c1 30 c0    	movl   $0xc030c189,(%rdi)
  401a28:	c3                   	retq   

0000000000401a29 <getval_275>:
  401a29:	b8 c5 89 ca c1       	mov    $0xc1ca89c5,%eax
  401a2e:	c3                   	retq   

0000000000401a2f <setval_386>:
  401a2f:	c7 07 ff 88 ca 90    	movl   $0x90ca88ff,(%rdi)
  401a35:	c3                   	retq   

0000000000401a36 <addval_266>:
  401a36:	8d 87 48 99 e0 90    	lea    -0x6f1f66b8(%rdi),%eax
  401a3c:	c3                   	retq   

0000000000401a3d <addval_188>:
  401a3d:	8d 87 8b d6 84 d2    	lea    -0x2d7b2975(%rdi),%eax
  401a43:	c3                   	retq   

0000000000401a44 <addval_450>:
  401a44:	8d 87 48 89 e0 c2    	lea    -0x3d1f76b8(%rdi),%eax
  401a4a:	c3                   	retq   

0000000000401a4b <getval_351>:
  401a4b:	b8 b0 08 89 e0       	mov    $0xe08908b0,%eax
  401a50:	c3                   	retq   

0000000000401a51 <getval_251>:
  401a51:	b8 58 48 81 e0       	mov    $0xe0814858,%eax
  401a56:	c3                   	retq   

0000000000401a57 <getval_469>:
  401a57:	b8 81 d6 38 c0       	mov    $0xc038d681,%eax
  401a5c:	c3                   	retq   

0000000000401a5d <addval_336>:
  401a5d:	8d 87 89 ca 08 db    	lea    -0x24f73577(%rdi),%eax
  401a63:	c3                   	retq   

0000000000401a64 <addval_364>:
  401a64:	8d 87 89 c1 48 c9    	lea    -0x36b73e77(%rdi),%eax
  401a6a:	c3                   	retq   

0000000000401a6b <getval_154>:
  401a6b:	b8 48 99 e0 c3       	mov    $0xc3e09948,%eax
  401a70:	c3                   	retq   

0000000000401a71 <getval_197>:
  401a71:	b8 81 c1 90 c3       	mov    $0xc390c181,%eax
  401a76:	c3                   	retq   

0000000000401a77 <addval_247>:
  401a77:	8d 87 89 c1 48 d2    	lea    -0x2db73e77(%rdi),%eax
  401a7d:	c3                   	retq   

0000000000401a7e <setval_147>:
  401a7e:	c7 07 89 d6 92 90    	movl   $0x9092d689,(%rdi)
  401a84:	c3                   	retq   

0000000000401a85 <getval_412>:
  401a85:	b8 89 d6 28 d2       	mov    $0xd228d689,%eax
  401a8a:	c3                   	retq   

0000000000401a8b <setval_133>:
  401a8b:	c7 07 88 d6 08 c9    	movl   $0xc908d688,(%rdi)
  401a91:	c3                   	retq   

0000000000401a92 <addval_179>:
  401a92:	8d 87 89 c1 90 c3    	lea    -0x3c6f3e77(%rdi),%eax
  401a98:	c3                   	retq   

0000000000401a99 <getval_494>:
  401a99:	b8 89 c1 38 d2       	mov    $0xd238c189,%eax
  401a9e:	c3                   	retq   

0000000000401a9f <getval_216>:
  401a9f:	b8 89 d6 c3 0e       	mov    $0xec3d689,%eax
  401aa4:	c3                   	retq   

0000000000401aa5 <getval_423>:
  401aa5:	b8 89 ca 84 db       	mov    $0xdb84ca89,%eax
  401aaa:	c3                   	retq   

0000000000401aab <getval_126>:
  401aab:	b8 89 c1 94 90       	mov    $0x9094c189,%eax
  401ab0:	c3                   	retq   

0000000000401ab1 <addval_103>:
  401ab1:	8d 87 89 d6 84 c0    	lea    -0x3f7b2977(%rdi),%eax
  401ab7:	c3                   	retq   

0000000000401ab8 <setval_225>:
  401ab8:	c7 07 89 ca a4 c0    	movl   $0xc0a4ca89,(%rdi)
  401abe:	c3                   	retq   

0000000000401abf <addval_239>:
  401abf:	8d 87 9d 48 89 e0    	lea    -0x1f76b763(%rdi),%eax
  401ac5:	c3                   	retq   

0000000000401ac6 <getval_413>:
  401ac6:	b8 09 c1 38 c9       	mov    $0xc938c109,%eax
  401acb:	c3                   	retq   

0000000000401acc <addval_290>:
  401acc:	8d 87 48 09 e0 c3    	lea    -0x3c1ff6b8(%rdi),%eax
  401ad2:	c3                   	retq   

0000000000401ad3 <getval_348>:
  401ad3:	b8 88 d6 c3 0a       	mov    $0xac3d688,%eax
  401ad8:	c3                   	retq   

0000000000401ad9 <setval_114>:
  401ad9:	c7 07 48 89 e0 90    	movl   $0x90e08948,(%rdi)
  401adf:	c3                   	retq   

0000000000401ae0 <addval_145>:
  401ae0:	8d 87 89 ca c2 a2    	lea    -0x5d3d3577(%rdi),%eax
  401ae6:	c3                   	retq   

0000000000401ae7 <setval_355>:
  401ae7:	c7 07 89 ca 18 c0    	movl   $0xc018ca89,(%rdi)
  401aed:	c3                   	retq   

0000000000401aee <end_farm>:
  401aee:	b8 01 00 00 00       	mov    $0x1,%eax
  401af3:	c3                   	retq   

0000000000401af4 <save_char>:
  401af4:	8b 05 2a 46 20 00    	mov    0x20462a(%rip),%eax        # 606124 <gets_cnt>
  401afa:	3d ff 03 00 00       	cmp    $0x3ff,%eax
  401aff:	7f 4a                	jg     401b4b <save_char+0x57>
  401b01:	8d 14 40             	lea    (%rax,%rax,2),%edx
  401b04:	89 f9                	mov    %edi,%ecx
  401b06:	c0 e9 04             	shr    $0x4,%cl
  401b09:	4c 8d 05 00 1a 00 00 	lea    0x1a00(%rip),%r8        # 403510 <trans_char>
  401b10:	83 e1 0f             	and    $0xf,%ecx
  401b13:	45 0f b6 0c 08       	movzbl (%r8,%rcx,1),%r9d
  401b18:	48 8d 0d 01 3a 20 00 	lea    0x203a01(%rip),%rcx        # 605520 <gets_buf>
  401b1f:	48 63 f2             	movslq %edx,%rsi
  401b22:	44 88 0c 31          	mov    %r9b,(%rcx,%rsi,1)
  401b26:	8d 72 01             	lea    0x1(%rdx),%esi
  401b29:	83 e7 0f             	and    $0xf,%edi
  401b2c:	41 0f b6 3c 38       	movzbl (%r8,%rdi,1),%edi
  401b31:	48 63 f6             	movslq %esi,%rsi
  401b34:	40 88 3c 31          	mov    %dil,(%rcx,%rsi,1)
  401b38:	83 c2 02             	add    $0x2,%edx
  401b3b:	48 63 d2             	movslq %edx,%rdx
  401b3e:	c6 04 11 20          	movb   $0x20,(%rcx,%rdx,1)
  401b42:	83 c0 01             	add    $0x1,%eax
  401b45:	89 05 d9 45 20 00    	mov    %eax,0x2045d9(%rip)        # 606124 <gets_cnt>
  401b4b:	f3 c3                	repz retq 

0000000000401b4d <save_term>:
  401b4d:	8b 05 d1 45 20 00    	mov    0x2045d1(%rip),%eax        # 606124 <gets_cnt>
  401b53:	8d 04 40             	lea    (%rax,%rax,2),%eax
  401b56:	48 98                	cltq   
  401b58:	48 8d 15 c1 39 20 00 	lea    0x2039c1(%rip),%rdx        # 605520 <gets_buf>
  401b5f:	c6 04 02 00          	movb   $0x0,(%rdx,%rax,1)
  401b63:	c3                   	retq   

0000000000401b64 <check_fail>:
  401b64:	48 83 ec 08          	sub    $0x8,%rsp
  401b68:	0f be 35 b9 45 20 00 	movsbl 0x2045b9(%rip),%esi        # 606128 <target_prefix>
  401b6f:	48 8d 0d aa 39 20 00 	lea    0x2039aa(%rip),%rcx        # 605520 <gets_buf>
  401b76:	8b 15 7c 39 20 00    	mov    0x20397c(%rip),%edx        # 6054f8 <check_level>
  401b7c:	48 8d 3d 90 16 00 00 	lea    0x1690(%rip),%rdi        # 403213 <_IO_stdin_used+0x3b3>
  401b83:	b8 00 00 00 00       	mov    $0x0,%eax
  401b88:	e8 d3 f0 ff ff       	callq  400c60 <printf@plt>
  401b8d:	bf 01 00 00 00       	mov    $0x1,%edi
  401b92:	e8 19 f2 ff ff       	callq  400db0 <exit@plt>

0000000000401b97 <Gets>:
  401b97:	41 54                	push   %r12
  401b99:	55                   	push   %rbp
  401b9a:	53                   	push   %rbx
  401b9b:	49 89 fc             	mov    %rdi,%r12
  401b9e:	c7 05 7c 45 20 00 00 	movl   $0x0,0x20457c(%rip)        # 606124 <gets_cnt>
  401ba5:	00 00 00 
  401ba8:	48 89 fb             	mov    %rdi,%rbx
  401bab:	eb 11                	jmp    401bbe <Gets+0x27>
  401bad:	48 8d 6b 01          	lea    0x1(%rbx),%rbp
  401bb1:	88 03                	mov    %al,(%rbx)
  401bb3:	0f b6 f8             	movzbl %al,%edi
  401bb6:	e8 39 ff ff ff       	callq  401af4 <save_char>
  401bbb:	48 89 eb             	mov    %rbp,%rbx
  401bbe:	48 8b 3d 2b 39 20 00 	mov    0x20392b(%rip),%rdi        # 6054f0 <infile>
  401bc5:	e8 56 f1 ff ff       	callq  400d20 <_IO_getc@plt>
  401bca:	83 f8 ff             	cmp    $0xffffffff,%eax
  401bcd:	74 05                	je     401bd4 <Gets+0x3d>
  401bcf:	83 f8 0a             	cmp    $0xa,%eax
  401bd2:	75 d9                	jne    401bad <Gets+0x16>
  401bd4:	c6 03 00             	movb   $0x0,(%rbx)
  401bd7:	b8 00 00 00 00       	mov    $0x0,%eax
  401bdc:	e8 6c ff ff ff       	callq  401b4d <save_term>
  401be1:	4c 89 e0             	mov    %r12,%rax
  401be4:	5b                   	pop    %rbx
  401be5:	5d                   	pop    %rbp
  401be6:	41 5c                	pop    %r12
  401be8:	c3                   	retq   

0000000000401be9 <notify_server>:
  401be9:	83 3d 18 39 20 00 00 	cmpl   $0x0,0x203918(%rip)        # 605508 <is_checker>
  401bf0:	0f 85 de 00 00 00    	jne    401cd4 <notify_server+0xeb>
  401bf6:	55                   	push   %rbp
  401bf7:	53                   	push   %rbx
  401bf8:	48 81 ec 08 40 00 00 	sub    $0x4008,%rsp
  401bff:	89 fb                	mov    %edi,%ebx
  401c01:	8b 05 1d 45 20 00    	mov    0x20451d(%rip),%eax        # 606124 <gets_cnt>
  401c07:	83 c0 64             	add    $0x64,%eax
  401c0a:	3d 00 20 00 00       	cmp    $0x2000,%eax
  401c0f:	0f 8f c1 00 00 00    	jg     401cd6 <notify_server+0xed>
  401c15:	44 0f be 0d 0b 45 20 	movsbl 0x20450b(%rip),%r9d        # 606128 <target_prefix>
  401c1c:	00 
  401c1d:	83 3d 64 38 20 00 00 	cmpl   $0x0,0x203864(%rip)        # 605488 <notify>
  401c24:	0f 84 c7 00 00 00    	je     401cf1 <notify_server+0x108>
  401c2a:	44 8b 05 cf 38 20 00 	mov    0x2038cf(%rip),%r8d        # 605500 <authkey>
  401c31:	85 db                	test   %ebx,%ebx
  401c33:	0f 84 c3 00 00 00    	je     401cfc <notify_server+0x113>
  401c39:	48 8d 2d e9 15 00 00 	lea    0x15e9(%rip),%rbp        # 403229 <_IO_stdin_used+0x3c9>
  401c40:	48 8d bc 24 00 20 00 	lea    0x2000(%rsp),%rdi
  401c47:	00 
  401c48:	48 8d 05 d1 38 20 00 	lea    0x2038d1(%rip),%rax        # 605520 <gets_buf>
  401c4f:	50                   	push   %rax
  401c50:	56                   	push   %rsi
  401c51:	48 89 e9             	mov    %rbp,%rcx
  401c54:	8b 15 d6 34 20 00    	mov    0x2034d6(%rip),%edx        # 605130 <target_id>
  401c5a:	48 8d 35 d2 15 00 00 	lea    0x15d2(%rip),%rsi        # 403233 <_IO_stdin_used+0x3d3>
  401c61:	b8 00 00 00 00       	mov    $0x0,%eax
  401c66:	e8 35 f1 ff ff       	callq  400da0 <sprintf@plt>
  401c6b:	48 83 c4 10          	add    $0x10,%rsp
  401c6f:	83 3d 12 38 20 00 00 	cmpl   $0x0,0x203812(%rip)        # 605488 <notify>
  401c76:	0f 84 b8 00 00 00    	je     401d34 <notify_server+0x14b>
  401c7c:	85 db                	test   %ebx,%ebx
  401c7e:	0f 84 a2 00 00 00    	je     401d26 <notify_server+0x13d>
  401c84:	48 8d 8c 24 00 20 00 	lea    0x2000(%rsp),%rcx
  401c8b:	00 
  401c8c:	49 89 e1             	mov    %rsp,%r9
  401c8f:	41 b8 00 00 00 00    	mov    $0x0,%r8d
  401c95:	48 8b 15 ac 34 20 00 	mov    0x2034ac(%rip),%rdx        # 605148 <lab>
  401c9c:	48 8b 35 ad 34 20 00 	mov    0x2034ad(%rip),%rsi        # 605150 <course>
  401ca3:	48 8b 3d 96 34 20 00 	mov    0x203496(%rip),%rdi        # 605140 <user_id>
  401caa:	e8 6e 10 00 00       	callq  402d1d <driver_post>
  401caf:	85 c0                	test   %eax,%eax
  401cb1:	78 55                	js     401d08 <notify_server+0x11f>
  401cb3:	48 8d 3d be 16 00 00 	lea    0x16be(%rip),%rdi        # 403378 <_IO_stdin_used+0x518>
  401cba:	e8 71 ef ff ff       	callq  400c30 <puts@plt>
  401cbf:	48 8d 3d 95 15 00 00 	lea    0x1595(%rip),%rdi        # 40325b <_IO_stdin_used+0x3fb>
  401cc6:	e8 65 ef ff ff       	callq  400c30 <puts@plt>
  401ccb:	48 81 c4 08 40 00 00 	add    $0x4008,%rsp
  401cd2:	5b                   	pop    %rbx
  401cd3:	5d                   	pop    %rbp
  401cd4:	f3 c3                	repz retq 
  401cd6:	48 8d 3d 6b 16 00 00 	lea    0x166b(%rip),%rdi        # 403348 <_IO_stdin_used+0x4e8>
  401cdd:	b8 00 00 00 00       	mov    $0x0,%eax
  401ce2:	e8 79 ef ff ff       	callq  400c60 <printf@plt>
  401ce7:	bf 01 00 00 00       	mov    $0x1,%edi
  401cec:	e8 bf f0 ff ff       	callq  400db0 <exit@plt>
  401cf1:	41 b8 ff ff ff ff    	mov    $0xffffffff,%r8d
  401cf7:	e9 35 ff ff ff       	jmpq   401c31 <notify_server+0x48>
  401cfc:	48 8d 2d 2b 15 00 00 	lea    0x152b(%rip),%rbp        # 40322e <_IO_stdin_used+0x3ce>
  401d03:	e9 38 ff ff ff       	jmpq   401c40 <notify_server+0x57>
  401d08:	48 89 e6             	mov    %rsp,%rsi
  401d0b:	48 8d 3d 3d 15 00 00 	lea    0x153d(%rip),%rdi        # 40324f <_IO_stdin_used+0x3ef>
  401d12:	b8 00 00 00 00       	mov    $0x0,%eax
  401d17:	e8 44 ef ff ff       	callq  400c60 <printf@plt>
  401d1c:	bf 01 00 00 00       	mov    $0x1,%edi
  401d21:	e8 8a f0 ff ff       	callq  400db0 <exit@plt>
  401d26:	48 8d 3d 38 15 00 00 	lea    0x1538(%rip),%rdi        # 403265 <_IO_stdin_used+0x405>
  401d2d:	e8 fe ee ff ff       	callq  400c30 <puts@plt>
  401d32:	eb 97                	jmp    401ccb <notify_server+0xe2>
  401d34:	48 89 ee             	mov    %rbp,%rsi
  401d37:	48 8d 3d 72 16 00 00 	lea    0x1672(%rip),%rdi        # 4033b0 <_IO_stdin_used+0x550>
  401d3e:	b8 00 00 00 00       	mov    $0x0,%eax
  401d43:	e8 18 ef ff ff       	callq  400c60 <printf@plt>
  401d48:	48 8b 35 f1 33 20 00 	mov    0x2033f1(%rip),%rsi        # 605140 <user_id>
  401d4f:	48 8d 3d 16 15 00 00 	lea    0x1516(%rip),%rdi        # 40326c <_IO_stdin_used+0x40c>
  401d56:	b8 00 00 00 00       	mov    $0x0,%eax
  401d5b:	e8 00 ef ff ff       	callq  400c60 <printf@plt>
  401d60:	48 8b 35 e9 33 20 00 	mov    0x2033e9(%rip),%rsi        # 605150 <course>
  401d67:	48 8d 3d 0b 15 00 00 	lea    0x150b(%rip),%rdi        # 403279 <_IO_stdin_used+0x419>
  401d6e:	b8 00 00 00 00       	mov    $0x0,%eax
  401d73:	e8 e8 ee ff ff       	callq  400c60 <printf@plt>
  401d78:	48 8b 35 c9 33 20 00 	mov    0x2033c9(%rip),%rsi        # 605148 <lab>
  401d7f:	48 8d 3d ff 14 00 00 	lea    0x14ff(%rip),%rdi        # 403285 <_IO_stdin_used+0x425>
  401d86:	b8 00 00 00 00       	mov    $0x0,%eax
  401d8b:	e8 d0 ee ff ff       	callq  400c60 <printf@plt>
  401d90:	48 8d b4 24 00 20 00 	lea    0x2000(%rsp),%rsi
  401d97:	00 
  401d98:	48 8d 3d ef 14 00 00 	lea    0x14ef(%rip),%rdi        # 40328e <_IO_stdin_used+0x42e>
  401d9f:	b8 00 00 00 00       	mov    $0x0,%eax
  401da4:	e8 b7 ee ff ff       	callq  400c60 <printf@plt>
  401da9:	e9 1d ff ff ff       	jmpq   401ccb <notify_server+0xe2>

0000000000401dae <validate>:
  401dae:	53                   	push   %rbx
  401daf:	89 fb                	mov    %edi,%ebx
  401db1:	83 3d 50 37 20 00 00 	cmpl   $0x0,0x203750(%rip)        # 605508 <is_checker>
  401db8:	74 68                	je     401e22 <validate+0x74>
  401dba:	39 3d 3c 37 20 00    	cmp    %edi,0x20373c(%rip)        # 6054fc <vlevel>
  401dc0:	75 2d                	jne    401def <validate+0x41>
  401dc2:	8b 35 30 37 20 00    	mov    0x203730(%rip),%esi        # 6054f8 <check_level>
  401dc8:	39 f7                	cmp    %esi,%edi
  401dca:	75 39                	jne    401e05 <validate+0x57>
  401dcc:	0f be 35 55 43 20 00 	movsbl 0x204355(%rip),%esi        # 606128 <target_prefix>
  401dd3:	48 8d 0d 46 37 20 00 	lea    0x203746(%rip),%rcx        # 605520 <gets_buf>
  401dda:	89 fa                	mov    %edi,%edx
  401ddc:	48 8d 3d d5 14 00 00 	lea    0x14d5(%rip),%rdi        # 4032b8 <_IO_stdin_used+0x458>
  401de3:	b8 00 00 00 00       	mov    $0x0,%eax
  401de8:	e8 73 ee ff ff       	callq  400c60 <printf@plt>
  401ded:	5b                   	pop    %rbx
  401dee:	c3                   	retq   
  401def:	48 8d 3d a4 14 00 00 	lea    0x14a4(%rip),%rdi        # 40329a <_IO_stdin_used+0x43a>
  401df6:	e8 35 ee ff ff       	callq  400c30 <puts@plt>
  401dfb:	b8 00 00 00 00       	mov    $0x0,%eax
  401e00:	e8 5f fd ff ff       	callq  401b64 <check_fail>
  401e05:	89 fa                	mov    %edi,%edx
  401e07:	48 8d 3d ca 15 00 00 	lea    0x15ca(%rip),%rdi        # 4033d8 <_IO_stdin_used+0x578>
  401e0e:	b8 00 00 00 00       	mov    $0x0,%eax
  401e13:	e8 48 ee ff ff       	callq  400c60 <printf@plt>
  401e18:	b8 00 00 00 00       	mov    $0x0,%eax
  401e1d:	e8 42 fd ff ff       	callq  401b64 <check_fail>
  401e22:	3b 3d d4 36 20 00    	cmp    0x2036d4(%rip),%edi        # 6054fc <vlevel>
  401e28:	74 1a                	je     401e44 <validate+0x96>
  401e2a:	48 8d 3d 69 14 00 00 	lea    0x1469(%rip),%rdi        # 40329a <_IO_stdin_used+0x43a>
  401e31:	e8 fa ed ff ff       	callq  400c30 <puts@plt>
  401e36:	89 de                	mov    %ebx,%esi
  401e38:	bf 00 00 00 00       	mov    $0x0,%edi
  401e3d:	e8 a7 fd ff ff       	callq  401be9 <notify_server>
  401e42:	eb a9                	jmp    401ded <validate+0x3f>
  401e44:	0f be 15 dd 42 20 00 	movsbl 0x2042dd(%rip),%edx        # 606128 <target_prefix>
  401e4b:	89 fe                	mov    %edi,%esi
  401e4d:	48 8d 3d ac 15 00 00 	lea    0x15ac(%rip),%rdi        # 403400 <_IO_stdin_used+0x5a0>
  401e54:	b8 00 00 00 00       	mov    $0x0,%eax
  401e59:	e8 02 ee ff ff       	callq  400c60 <printf@plt>
  401e5e:	89 de                	mov    %ebx,%esi
  401e60:	bf 01 00 00 00       	mov    $0x1,%edi
  401e65:	e8 7f fd ff ff       	callq  401be9 <notify_server>
  401e6a:	eb 81                	jmp    401ded <validate+0x3f>

0000000000401e6c <fail>:
  401e6c:	48 83 ec 08          	sub    $0x8,%rsp
  401e70:	83 3d 91 36 20 00 00 	cmpl   $0x0,0x203691(%rip)        # 605508 <is_checker>
  401e77:	75 11                	jne    401e8a <fail+0x1e>
  401e79:	89 fe                	mov    %edi,%esi
  401e7b:	bf 00 00 00 00       	mov    $0x0,%edi
  401e80:	e8 64 fd ff ff       	callq  401be9 <notify_server>
  401e85:	48 83 c4 08          	add    $0x8,%rsp
  401e89:	c3                   	retq   
  401e8a:	b8 00 00 00 00       	mov    $0x0,%eax
  401e8f:	e8 d0 fc ff ff       	callq  401b64 <check_fail>

0000000000401e94 <bushandler>:
  401e94:	48 83 ec 08          	sub    $0x8,%rsp
  401e98:	83 3d 69 36 20 00 00 	cmpl   $0x0,0x203669(%rip)        # 605508 <is_checker>
  401e9f:	74 16                	je     401eb7 <bushandler+0x23>
  401ea1:	48 8d 3d 25 14 00 00 	lea    0x1425(%rip),%rdi        # 4032cd <_IO_stdin_used+0x46d>
  401ea8:	e8 83 ed ff ff       	callq  400c30 <puts@plt>
  401ead:	b8 00 00 00 00       	mov    $0x0,%eax
  401eb2:	e8 ad fc ff ff       	callq  401b64 <check_fail>
  401eb7:	48 8d 3d 7a 15 00 00 	lea    0x157a(%rip),%rdi        # 403438 <_IO_stdin_used+0x5d8>
  401ebe:	e8 6d ed ff ff       	callq  400c30 <puts@plt>
  401ec3:	48 8d 3d 0d 14 00 00 	lea    0x140d(%rip),%rdi        # 4032d7 <_IO_stdin_used+0x477>
  401eca:	e8 61 ed ff ff       	callq  400c30 <puts@plt>
  401ecf:	be 00 00 00 00       	mov    $0x0,%esi
  401ed4:	bf 00 00 00 00       	mov    $0x0,%edi
  401ed9:	e8 0b fd ff ff       	callq  401be9 <notify_server>
  401ede:	bf 01 00 00 00       	mov    $0x1,%edi
  401ee3:	e8 c8 ee ff ff       	callq  400db0 <exit@plt>

0000000000401ee8 <seghandler>:
  401ee8:	48 83 ec 08          	sub    $0x8,%rsp
  401eec:	83 3d 15 36 20 00 00 	cmpl   $0x0,0x203615(%rip)        # 605508 <is_checker>
  401ef3:	74 16                	je     401f0b <seghandler+0x23>
  401ef5:	48 8d 3d f1 13 00 00 	lea    0x13f1(%rip),%rdi        # 4032ed <_IO_stdin_used+0x48d>
  401efc:	e8 2f ed ff ff       	callq  400c30 <puts@plt>
  401f01:	b8 00 00 00 00       	mov    $0x0,%eax
  401f06:	e8 59 fc ff ff       	callq  401b64 <check_fail>
  401f0b:	48 8d 3d 46 15 00 00 	lea    0x1546(%rip),%rdi        # 403458 <_IO_stdin_used+0x5f8>
  401f12:	e8 19 ed ff ff       	callq  400c30 <puts@plt>
  401f17:	48 8d 3d b9 13 00 00 	lea    0x13b9(%rip),%rdi        # 4032d7 <_IO_stdin_used+0x477>
  401f1e:	e8 0d ed ff ff       	callq  400c30 <puts@plt>
  401f23:	be 00 00 00 00       	mov    $0x0,%esi
  401f28:	bf 00 00 00 00       	mov    $0x0,%edi
  401f2d:	e8 b7 fc ff ff       	callq  401be9 <notify_server>
  401f32:	bf 01 00 00 00       	mov    $0x1,%edi
  401f37:	e8 74 ee ff ff       	callq  400db0 <exit@plt>

0000000000401f3c <illegalhandler>:
  401f3c:	48 83 ec 08          	sub    $0x8,%rsp
  401f40:	83 3d c1 35 20 00 00 	cmpl   $0x0,0x2035c1(%rip)        # 605508 <is_checker>
  401f47:	74 16                	je     401f5f <illegalhandler+0x23>
  401f49:	48 8d 3d b0 13 00 00 	lea    0x13b0(%rip),%rdi        # 403300 <_IO_stdin_used+0x4a0>
  401f50:	e8 db ec ff ff       	callq  400c30 <puts@plt>
  401f55:	b8 00 00 00 00       	mov    $0x0,%eax
  401f5a:	e8 05 fc ff ff       	callq  401b64 <check_fail>
  401f5f:	48 8d 3d 1a 15 00 00 	lea    0x151a(%rip),%rdi        # 403480 <_IO_stdin_used+0x620>
  401f66:	e8 c5 ec ff ff       	callq  400c30 <puts@plt>
  401f6b:	48 8d 3d 65 13 00 00 	lea    0x1365(%rip),%rdi        # 4032d7 <_IO_stdin_used+0x477>
  401f72:	e8 b9 ec ff ff       	callq  400c30 <puts@plt>
  401f77:	be 00 00 00 00       	mov    $0x0,%esi
  401f7c:	bf 00 00 00 00       	mov    $0x0,%edi
  401f81:	e8 63 fc ff ff       	callq  401be9 <notify_server>
  401f86:	bf 01 00 00 00       	mov    $0x1,%edi
  401f8b:	e8 20 ee ff ff       	callq  400db0 <exit@plt>

0000000000401f90 <sigalrmhandler>:
  401f90:	48 83 ec 08          	sub    $0x8,%rsp
  401f94:	83 3d 6d 35 20 00 00 	cmpl   $0x0,0x20356d(%rip)        # 605508 <is_checker>
  401f9b:	74 16                	je     401fb3 <sigalrmhandler+0x23>
  401f9d:	48 8d 3d 70 13 00 00 	lea    0x1370(%rip),%rdi        # 403314 <_IO_stdin_used+0x4b4>
  401fa4:	e8 87 ec ff ff       	callq  400c30 <puts@plt>
  401fa9:	b8 00 00 00 00       	mov    $0x0,%eax
  401fae:	e8 b1 fb ff ff       	callq  401b64 <check_fail>
  401fb3:	be 05 00 00 00       	mov    $0x5,%esi
  401fb8:	48 8d 3d f1 14 00 00 	lea    0x14f1(%rip),%rdi        # 4034b0 <_IO_stdin_used+0x650>
  401fbf:	b8 00 00 00 00       	mov    $0x0,%eax
  401fc4:	e8 97 ec ff ff       	callq  400c60 <printf@plt>
  401fc9:	be 00 00 00 00       	mov    $0x0,%esi
  401fce:	bf 00 00 00 00       	mov    $0x0,%edi
  401fd3:	e8 11 fc ff ff       	callq  401be9 <notify_server>
  401fd8:	bf 01 00 00 00       	mov    $0x1,%edi
  401fdd:	e8 ce ed ff ff       	callq  400db0 <exit@plt>

0000000000401fe2 <launch>:
  401fe2:	55                   	push   %rbp
  401fe3:	48 89 e5             	mov    %rsp,%rbp
  401fe6:	48 89 fa             	mov    %rdi,%rdx
  401fe9:	48 8d 47 1e          	lea    0x1e(%rdi),%rax
  401fed:	48 83 e0 f0          	and    $0xfffffffffffffff0,%rax
  401ff1:	48 29 c4             	sub    %rax,%rsp
  401ff4:	48 8d 7c 24 0f       	lea    0xf(%rsp),%rdi
  401ff9:	48 83 e7 f0          	and    $0xfffffffffffffff0,%rdi
  401ffd:	be f4 00 00 00       	mov    $0xf4,%esi
  402002:	e8 69 ec ff ff       	callq  400c70 <memset@plt>
  402007:	48 8b 05 92 34 20 00 	mov    0x203492(%rip),%rax        # 6054a0 <stdin@@GLIBC_2.2.5>
  40200e:	48 39 05 db 34 20 00 	cmp    %rax,0x2034db(%rip)        # 6054f0 <infile>
  402015:	74 2b                	je     402042 <launch+0x60>
  402017:	c7 05 db 34 20 00 00 	movl   $0x0,0x2034db(%rip)        # 6054fc <vlevel>
  40201e:	00 00 00 
  402021:	b8 00 00 00 00       	mov    $0x0,%eax
  402026:	e8 83 f9 ff ff       	callq  4019ae <test>
  40202b:	83 3d d6 34 20 00 00 	cmpl   $0x0,0x2034d6(%rip)        # 605508 <is_checker>
  402032:	75 21                	jne    402055 <launch+0x73>
  402034:	48 8d 3d f9 12 00 00 	lea    0x12f9(%rip),%rdi        # 403334 <_IO_stdin_used+0x4d4>
  40203b:	e8 f0 eb ff ff       	callq  400c30 <puts@plt>
  402040:	c9                   	leaveq 
  402041:	c3                   	retq   
  402042:	48 8d 3d d3 12 00 00 	lea    0x12d3(%rip),%rdi        # 40331c <_IO_stdin_used+0x4bc>
  402049:	b8 00 00 00 00       	mov    $0x0,%eax
  40204e:	e8 0d ec ff ff       	callq  400c60 <printf@plt>
  402053:	eb c2                	jmp    402017 <launch+0x35>
  402055:	48 8d 3d cd 12 00 00 	lea    0x12cd(%rip),%rdi        # 403329 <_IO_stdin_used+0x4c9>
  40205c:	e8 cf eb ff ff       	callq  400c30 <puts@plt>
  402061:	b8 00 00 00 00       	mov    $0x0,%eax
  402066:	e8 f9 fa ff ff       	callq  401b64 <check_fail>

000000000040206b <stable_launch>:
  40206b:	53                   	push   %rbx
  40206c:	48 89 3d 75 34 20 00 	mov    %rdi,0x203475(%rip)        # 6054e8 <global_offset>
  402073:	41 b9 00 00 00 00    	mov    $0x0,%r9d
  402079:	41 b8 00 00 00 00    	mov    $0x0,%r8d
  40207f:	b9 32 01 00 00       	mov    $0x132,%ecx
  402084:	ba 07 00 00 00       	mov    $0x7,%edx
  402089:	be 00 00 10 00       	mov    $0x100000,%esi
  40208e:	bf 00 60 58 55       	mov    $0x55586000,%edi
  402093:	e8 b8 eb ff ff       	callq  400c50 <mmap@plt>
  402098:	48 89 c3             	mov    %rax,%rbx
  40209b:	48 3d 00 60 58 55    	cmp    $0x55586000,%rax
  4020a1:	75 43                	jne    4020e6 <stable_launch+0x7b>
  4020a3:	48 8d 90 f8 ff 0f 00 	lea    0xffff8(%rax),%rdx
  4020aa:	48 89 15 7f 40 20 00 	mov    %rdx,0x20407f(%rip)        # 606130 <stack_top>
  4020b1:	48 89 e0             	mov    %rsp,%rax
  4020b4:	48 89 d4             	mov    %rdx,%rsp
  4020b7:	48 89 c2             	mov    %rax,%rdx
  4020ba:	48 89 15 1f 34 20 00 	mov    %rdx,0x20341f(%rip)        # 6054e0 <global_save_stack>
  4020c1:	48 8b 3d 20 34 20 00 	mov    0x203420(%rip),%rdi        # 6054e8 <global_offset>
  4020c8:	e8 15 ff ff ff       	callq  401fe2 <launch>
  4020cd:	48 8b 05 0c 34 20 00 	mov    0x20340c(%rip),%rax        # 6054e0 <global_save_stack>
  4020d4:	48 89 c4             	mov    %rax,%rsp
  4020d7:	be 00 00 10 00       	mov    $0x100000,%esi
  4020dc:	48 89 df             	mov    %rbx,%rdi
  4020df:	e8 5c ec ff ff       	callq  400d40 <munmap@plt>
  4020e4:	5b                   	pop    %rbx
  4020e5:	c3                   	retq   
  4020e6:	be 00 00 10 00       	mov    $0x100000,%esi
  4020eb:	48 89 c7             	mov    %rax,%rdi
  4020ee:	e8 4d ec ff ff       	callq  400d40 <munmap@plt>
  4020f3:	ba 00 60 58 55       	mov    $0x55586000,%edx
  4020f8:	48 8d 35 e9 13 00 00 	lea    0x13e9(%rip),%rsi        # 4034e8 <_IO_stdin_used+0x688>
  4020ff:	48 8b 3d ba 33 20 00 	mov    0x2033ba(%rip),%rdi        # 6054c0 <stderr@@GLIBC_2.2.5>
  402106:	b8 00 00 00 00       	mov    $0x0,%eax
  40210b:	e8 c0 eb ff ff       	callq  400cd0 <fprintf@plt>
  402110:	bf 01 00 00 00       	mov    $0x1,%edi
  402115:	e8 96 ec ff ff       	callq  400db0 <exit@plt>

000000000040211a <rio_readinitb>:
  40211a:	89 37                	mov    %esi,(%rdi)
  40211c:	c7 47 04 00 00 00 00 	movl   $0x0,0x4(%rdi)
  402123:	48 8d 47 10          	lea    0x10(%rdi),%rax
  402127:	48 89 47 08          	mov    %rax,0x8(%rdi)
  40212b:	c3                   	retq   

000000000040212c <sigalrm_handler>:
  40212c:	48 83 ec 08          	sub    $0x8,%rsp
  402130:	ba 00 00 00 00       	mov    $0x0,%edx
  402135:	48 8d 35 e4 13 00 00 	lea    0x13e4(%rip),%rsi        # 403520 <trans_char+0x10>
  40213c:	48 8b 3d 7d 33 20 00 	mov    0x20337d(%rip),%rdi        # 6054c0 <stderr@@GLIBC_2.2.5>
  402143:	b8 00 00 00 00       	mov    $0x0,%eax
  402148:	e8 83 eb ff ff       	callq  400cd0 <fprintf@plt>
  40214d:	bf 01 00 00 00       	mov    $0x1,%edi
  402152:	e8 59 ec ff ff       	callq  400db0 <exit@plt>

0000000000402157 <urlencode>:
  402157:	41 54                	push   %r12
  402159:	55                   	push   %rbp
  40215a:	53                   	push   %rbx
  40215b:	48 83 ec 10          	sub    $0x10,%rsp
  40215f:	48 89 fb             	mov    %rdi,%rbx
  402162:	48 89 f5             	mov    %rsi,%rbp
  402165:	b8 00 00 00 00       	mov    $0x0,%eax
  40216a:	48 c7 c1 ff ff ff ff 	mov    $0xffffffffffffffff,%rcx
  402171:	f2 ae                	repnz scas %es:(%rdi),%al
  402173:	48 f7 d1             	not    %rcx
  402176:	8d 41 ff             	lea    -0x1(%rcx),%eax
  402179:	eb 0e                	jmp    402189 <urlencode+0x32>
  40217b:	88 55 00             	mov    %dl,0x0(%rbp)
  40217e:	48 8d 6d 01          	lea    0x1(%rbp),%rbp
  402182:	48 83 c3 01          	add    $0x1,%rbx
  402186:	44 89 e0             	mov    %r12d,%eax
  402189:	44 8d 60 ff          	lea    -0x1(%rax),%r12d
  40218d:	85 c0                	test   %eax,%eax
  40218f:	0f 84 95 00 00 00    	je     40222a <urlencode+0xd3>
  402195:	0f b6 13             	movzbl (%rbx),%edx
  402198:	80 fa 2a             	cmp    $0x2a,%dl
  40219b:	0f 94 c1             	sete   %cl
  40219e:	80 fa 2d             	cmp    $0x2d,%dl
  4021a1:	0f 94 c0             	sete   %al
  4021a4:	08 c1                	or     %al,%cl
  4021a6:	75 d3                	jne    40217b <urlencode+0x24>
  4021a8:	80 fa 2e             	cmp    $0x2e,%dl
  4021ab:	74 ce                	je     40217b <urlencode+0x24>
  4021ad:	80 fa 5f             	cmp    $0x5f,%dl
  4021b0:	74 c9                	je     40217b <urlencode+0x24>
  4021b2:	8d 42 d0             	lea    -0x30(%rdx),%eax
  4021b5:	3c 09                	cmp    $0x9,%al
  4021b7:	76 c2                	jbe    40217b <urlencode+0x24>
  4021b9:	8d 42 bf             	lea    -0x41(%rdx),%eax
  4021bc:	3c 19                	cmp    $0x19,%al
  4021be:	76 bb                	jbe    40217b <urlencode+0x24>
  4021c0:	8d 42 9f             	lea    -0x61(%rdx),%eax
  4021c3:	3c 19                	cmp    $0x19,%al
  4021c5:	76 b4                	jbe    40217b <urlencode+0x24>
  4021c7:	80 fa 20             	cmp    $0x20,%dl
  4021ca:	74 4c                	je     402218 <urlencode+0xc1>
  4021cc:	8d 42 e0             	lea    -0x20(%rdx),%eax
  4021cf:	3c 5f                	cmp    $0x5f,%al
  4021d1:	0f 96 c1             	setbe  %cl
  4021d4:	80 fa 09             	cmp    $0x9,%dl
  4021d7:	0f 94 c0             	sete   %al
  4021da:	08 c1                	or     %al,%cl
  4021dc:	74 47                	je     402225 <urlencode+0xce>
  4021de:	0f b6 d2             	movzbl %dl,%edx
  4021e1:	48 8d 7c 24 08       	lea    0x8(%rsp),%rdi
  4021e6:	48 8d 35 cb 13 00 00 	lea    0x13cb(%rip),%rsi        # 4035b8 <trans_char+0xa8>
  4021ed:	b8 00 00 00 00       	mov    $0x0,%eax
  4021f2:	e8 a9 eb ff ff       	callq  400da0 <sprintf@plt>
  4021f7:	0f b6 44 24 08       	movzbl 0x8(%rsp),%eax
  4021fc:	88 45 00             	mov    %al,0x0(%rbp)
  4021ff:	0f b6 44 24 09       	movzbl 0x9(%rsp),%eax
  402204:	88 45 01             	mov    %al,0x1(%rbp)
  402207:	0f b6 44 24 0a       	movzbl 0xa(%rsp),%eax
  40220c:	88 45 02             	mov    %al,0x2(%rbp)
  40220f:	48 8d 6d 03          	lea    0x3(%rbp),%rbp
  402213:	e9 6a ff ff ff       	jmpq   402182 <urlencode+0x2b>
  402218:	c6 45 00 2b          	movb   $0x2b,0x0(%rbp)
  40221c:	48 8d 6d 01          	lea    0x1(%rbp),%rbp
  402220:	e9 5d ff ff ff       	jmpq   402182 <urlencode+0x2b>
  402225:	b8 ff ff ff ff       	mov    $0xffffffff,%eax
  40222a:	48 83 c4 10          	add    $0x10,%rsp
  40222e:	5b                   	pop    %rbx
  40222f:	5d                   	pop    %rbp
  402230:	41 5c                	pop    %r12
  402232:	c3                   	retq   

0000000000402233 <rio_writen>:
  402233:	41 55                	push   %r13
  402235:	41 54                	push   %r12
  402237:	55                   	push   %rbp
  402238:	53                   	push   %rbx
  402239:	48 83 ec 08          	sub    $0x8,%rsp
  40223d:	41 89 fc             	mov    %edi,%r12d
  402240:	49 89 d5             	mov    %rdx,%r13
  402243:	48 89 f5             	mov    %rsi,%rbp
  402246:	48 89 d3             	mov    %rdx,%rbx
  402249:	eb 06                	jmp    402251 <rio_writen+0x1e>
  40224b:	48 29 c3             	sub    %rax,%rbx
  40224e:	48 01 c5             	add    %rax,%rbp
  402251:	48 85 db             	test   %rbx,%rbx
  402254:	74 24                	je     40227a <rio_writen+0x47>
  402256:	48 89 da             	mov    %rbx,%rdx
  402259:	48 89 ee             	mov    %rbp,%rsi
  40225c:	44 89 e7             	mov    %r12d,%edi
  40225f:	e8 dc e9 ff ff       	callq  400c40 <write@plt>
  402264:	48 85 c0             	test   %rax,%rax
  402267:	7f e2                	jg     40224b <rio_writen+0x18>
  402269:	e8 82 e9 ff ff       	callq  400bf0 <__errno_location@plt>
  40226e:	83 38 04             	cmpl   $0x4,(%rax)
  402271:	75 15                	jne    402288 <rio_writen+0x55>
  402273:	b8 00 00 00 00       	mov    $0x0,%eax
  402278:	eb d1                	jmp    40224b <rio_writen+0x18>
  40227a:	4c 89 e8             	mov    %r13,%rax
  40227d:	48 83 c4 08          	add    $0x8,%rsp
  402281:	5b                   	pop    %rbx
  402282:	5d                   	pop    %rbp
  402283:	41 5c                	pop    %r12
  402285:	41 5d                	pop    %r13
  402287:	c3                   	retq   
  402288:	48 c7 c0 ff ff ff ff 	mov    $0xffffffffffffffff,%rax
  40228f:	eb ec                	jmp    40227d <rio_writen+0x4a>

0000000000402291 <rio_read>:
  402291:	41 55                	push   %r13
  402293:	41 54                	push   %r12
  402295:	55                   	push   %rbp
  402296:	53                   	push   %rbx
  402297:	48 83 ec 08          	sub    $0x8,%rsp
  40229b:	48 89 fb             	mov    %rdi,%rbx
  40229e:	49 89 f5             	mov    %rsi,%r13
  4022a1:	49 89 d4             	mov    %rdx,%r12
  4022a4:	eb 0a                	jmp    4022b0 <rio_read+0x1f>
  4022a6:	e8 45 e9 ff ff       	callq  400bf0 <__errno_location@plt>
  4022ab:	83 38 04             	cmpl   $0x4,(%rax)
  4022ae:	75 5c                	jne    40230c <rio_read+0x7b>
  4022b0:	8b 6b 04             	mov    0x4(%rbx),%ebp
  4022b3:	85 ed                	test   %ebp,%ebp
  4022b5:	7f 24                	jg     4022db <rio_read+0x4a>
  4022b7:	48 8d 6b 10          	lea    0x10(%rbx),%rbp
  4022bb:	ba 00 20 00 00       	mov    $0x2000,%edx
  4022c0:	48 89 ee             	mov    %rbp,%rsi
  4022c3:	8b 3b                	mov    (%rbx),%edi
  4022c5:	e8 d6 e9 ff ff       	callq  400ca0 <read@plt>
  4022ca:	89 43 04             	mov    %eax,0x4(%rbx)
  4022cd:	85 c0                	test   %eax,%eax
  4022cf:	78 d5                	js     4022a6 <rio_read+0x15>
  4022d1:	85 c0                	test   %eax,%eax
  4022d3:	74 40                	je     402315 <rio_read+0x84>
  4022d5:	48 89 6b 08          	mov    %rbp,0x8(%rbx)
  4022d9:	eb d5                	jmp    4022b0 <rio_read+0x1f>
  4022db:	89 e8                	mov    %ebp,%eax
  4022dd:	49 39 c4             	cmp    %rax,%r12
  4022e0:	77 03                	ja     4022e5 <rio_read+0x54>
  4022e2:	44 89 e5             	mov    %r12d,%ebp
  4022e5:	4c 63 e5             	movslq %ebp,%r12
  4022e8:	48 8b 73 08          	mov    0x8(%rbx),%rsi
  4022ec:	4c 89 e2             	mov    %r12,%rdx
  4022ef:	4c 89 ef             	mov    %r13,%rdi
  4022f2:	e8 f9 e9 ff ff       	callq  400cf0 <memcpy@plt>
  4022f7:	4c 01 63 08          	add    %r12,0x8(%rbx)
  4022fb:	29 6b 04             	sub    %ebp,0x4(%rbx)
  4022fe:	4c 89 e0             	mov    %r12,%rax
  402301:	48 83 c4 08          	add    $0x8,%rsp
  402305:	5b                   	pop    %rbx
  402306:	5d                   	pop    %rbp
  402307:	41 5c                	pop    %r12
  402309:	41 5d                	pop    %r13
  40230b:	c3                   	retq   
  40230c:	48 c7 c0 ff ff ff ff 	mov    $0xffffffffffffffff,%rax
  402313:	eb ec                	jmp    402301 <rio_read+0x70>
  402315:	b8 00 00 00 00       	mov    $0x0,%eax
  40231a:	eb e5                	jmp    402301 <rio_read+0x70>

000000000040231c <rio_readlineb>:
  40231c:	41 55                	push   %r13
  40231e:	41 54                	push   %r12
  402320:	55                   	push   %rbp
  402321:	53                   	push   %rbx
  402322:	48 83 ec 18          	sub    $0x18,%rsp
  402326:	49 89 fd             	mov    %rdi,%r13
  402329:	49 89 d4             	mov    %rdx,%r12
  40232c:	48 89 f5             	mov    %rsi,%rbp
  40232f:	bb 01 00 00 00       	mov    $0x1,%ebx
  402334:	4c 39 e3             	cmp    %r12,%rbx
  402337:	73 47                	jae    402380 <rio_readlineb+0x64>
  402339:	48 8d 74 24 0f       	lea    0xf(%rsp),%rsi
  40233e:	ba 01 00 00 00       	mov    $0x1,%edx
  402343:	4c 89 ef             	mov    %r13,%rdi
  402346:	e8 46 ff ff ff       	callq  402291 <rio_read>
  40234b:	83 f8 01             	cmp    $0x1,%eax
  40234e:	75 1c                	jne    40236c <rio_readlineb+0x50>
  402350:	48 8d 45 01          	lea    0x1(%rbp),%rax
  402354:	0f b6 54 24 0f       	movzbl 0xf(%rsp),%edx
  402359:	88 55 00             	mov    %dl,0x0(%rbp)
  40235c:	80 7c 24 0f 0a       	cmpb   $0xa,0xf(%rsp)
  402361:	74 1a                	je     40237d <rio_readlineb+0x61>
  402363:	48 83 c3 01          	add    $0x1,%rbx
  402367:	48 89 c5             	mov    %rax,%rbp
  40236a:	eb c8                	jmp    402334 <rio_readlineb+0x18>
  40236c:	85 c0                	test   %eax,%eax
  40236e:	75 22                	jne    402392 <rio_readlineb+0x76>
  402370:	48 83 fb 01          	cmp    $0x1,%rbx
  402374:	75 0a                	jne    402380 <rio_readlineb+0x64>
  402376:	b8 00 00 00 00       	mov    $0x0,%eax
  40237b:	eb 0a                	jmp    402387 <rio_readlineb+0x6b>
  40237d:	48 89 c5             	mov    %rax,%rbp
  402380:	c6 45 00 00          	movb   $0x0,0x0(%rbp)
  402384:	48 89 d8             	mov    %rbx,%rax
  402387:	48 83 c4 18          	add    $0x18,%rsp
  40238b:	5b                   	pop    %rbx
  40238c:	5d                   	pop    %rbp
  40238d:	41 5c                	pop    %r12
  40238f:	41 5d                	pop    %r13
  402391:	c3                   	retq   
  402392:	48 c7 c0 ff ff ff ff 	mov    $0xffffffffffffffff,%rax
  402399:	eb ec                	jmp    402387 <rio_readlineb+0x6b>

000000000040239b <submitr>:
  40239b:	41 57                	push   %r15
  40239d:	41 56                	push   %r14
  40239f:	41 55                	push   %r13
  4023a1:	41 54                	push   %r12
  4023a3:	55                   	push   %rbp
  4023a4:	53                   	push   %rbx
  4023a5:	48 81 ec 58 a0 00 00 	sub    $0xa058,%rsp
  4023ac:	49 89 fd             	mov    %rdi,%r13
  4023af:	89 74 24 14          	mov    %esi,0x14(%rsp)
  4023b3:	49 89 d7             	mov    %rdx,%r15
  4023b6:	48 89 4c 24 08       	mov    %rcx,0x8(%rsp)
  4023bb:	4c 89 44 24 18       	mov    %r8,0x18(%rsp)
  4023c0:	4d 89 ce             	mov    %r9,%r14
  4023c3:	48 8b 9c 24 90 a0 00 	mov    0xa090(%rsp),%rbx
  4023ca:	00 
  4023cb:	c7 84 24 2c 20 00 00 	movl   $0x0,0x202c(%rsp)
  4023d2:	00 00 00 00 
  4023d6:	ba 00 00 00 00       	mov    $0x0,%edx
  4023db:	be 01 00 00 00       	mov    $0x1,%esi
  4023e0:	bf 02 00 00 00       	mov    $0x2,%edi
  4023e5:	e8 e6 e9 ff ff       	callq  400dd0 <socket@plt>
  4023ea:	85 c0                	test   %eax,%eax
  4023ec:	0f 88 ca 01 00 00    	js     4025bc <submitr+0x221>
  4023f2:	89 c5                	mov    %eax,%ebp
  4023f4:	4c 89 ef             	mov    %r13,%rdi
  4023f7:	e8 c4 e8 ff ff       	callq  400cc0 <gethostbyname@plt>
  4023fc:	48 85 c0             	test   %rax,%rax
  4023ff:	0f 84 05 02 00 00    	je     40260a <submitr+0x26f>
  402405:	4c 8d a4 24 40 a0 00 	lea    0xa040(%rsp),%r12
  40240c:	00 
  40240d:	48 c7 84 24 40 a0 00 	movq   $0x0,0xa040(%rsp)
  402414:	00 00 00 00 00 
  402419:	48 c7 84 24 48 a0 00 	movq   $0x0,0xa048(%rsp)
  402420:	00 00 00 00 00 
  402425:	66 c7 84 24 40 a0 00 	movw   $0x2,0xa040(%rsp)
  40242c:	00 02 00 
  40242f:	48 8b 48 18          	mov    0x18(%rax),%rcx
  402433:	48 63 50 14          	movslq 0x14(%rax),%rdx
  402437:	48 8d b4 24 44 a0 00 	lea    0xa044(%rsp),%rsi
  40243e:	00 
  40243f:	48 8b 39             	mov    (%rcx),%rdi
  402442:	e8 09 e9 ff ff       	callq  400d50 <bcopy@plt>
  402447:	0f b7 44 24 14       	movzwl 0x14(%rsp),%eax
  40244c:	66 c1 c8 08          	ror    $0x8,%ax
  402450:	66 89 84 24 42 a0 00 	mov    %ax,0xa042(%rsp)
  402457:	00 
  402458:	ba 10 00 00 00       	mov    $0x10,%edx
  40245d:	4c 89 e6             	mov    %r12,%rsi
  402460:	89 ef                	mov    %ebp,%edi
  402462:	e8 59 e9 ff ff       	callq  400dc0 <connect@plt>
  402467:	85 c0                	test   %eax,%eax
  402469:	0f 88 02 02 00 00    	js     402671 <submitr+0x2d6>
  40246f:	48 c7 c6 ff ff ff ff 	mov    $0xffffffffffffffff,%rsi
  402476:	b8 00 00 00 00       	mov    $0x0,%eax
  40247b:	48 89 f1             	mov    %rsi,%rcx
  40247e:	4c 89 f7             	mov    %r14,%rdi
  402481:	f2 ae                	repnz scas %es:(%rdi),%al
  402483:	48 f7 d1             	not    %rcx
  402486:	48 89 ca             	mov    %rcx,%rdx
  402489:	48 89 f1             	mov    %rsi,%rcx
  40248c:	4c 89 ff             	mov    %r15,%rdi
  40248f:	f2 ae                	repnz scas %es:(%rdi),%al
  402491:	48 f7 d1             	not    %rcx
  402494:	49 89 c8             	mov    %rcx,%r8
  402497:	48 89 f1             	mov    %rsi,%rcx
  40249a:	48 8b 7c 24 08       	mov    0x8(%rsp),%rdi
  40249f:	f2 ae                	repnz scas %es:(%rdi),%al
  4024a1:	48 f7 d1             	not    %rcx
  4024a4:	4d 8d 44 08 fe       	lea    -0x2(%r8,%rcx,1),%r8
  4024a9:	48 89 f1             	mov    %rsi,%rcx
  4024ac:	48 8b 7c 24 18       	mov    0x18(%rsp),%rdi
  4024b1:	f2 ae                	repnz scas %es:(%rdi),%al
  4024b3:	48 89 c8             	mov    %rcx,%rax
  4024b6:	48 f7 d0             	not    %rax
  4024b9:	49 8d 4c 00 ff       	lea    -0x1(%r8,%rax,1),%rcx
  4024be:	48 8d 44 52 fd       	lea    -0x3(%rdx,%rdx,2),%rax
  4024c3:	48 8d 84 01 80 00 00 	lea    0x80(%rcx,%rax,1),%rax
  4024ca:	00 
  4024cb:	48 3d 00 20 00 00    	cmp    $0x2000,%rax
  4024d1:	0f 87 f3 01 00 00    	ja     4026ca <submitr+0x32f>
  4024d7:	48 8d b4 24 30 40 00 	lea    0x4030(%rsp),%rsi
  4024de:	00 
  4024df:	b9 00 04 00 00       	mov    $0x400,%ecx
  4024e4:	b8 00 00 00 00       	mov    $0x0,%eax
  4024e9:	48 89 f7             	mov    %rsi,%rdi
  4024ec:	f3 48 ab             	rep stos %rax,%es:(%rdi)
  4024ef:	4c 89 f7             	mov    %r14,%rdi
  4024f2:	e8 60 fc ff ff       	callq  402157 <urlencode>
  4024f7:	85 c0                	test   %eax,%eax
  4024f9:	0f 88 3d 02 00 00    	js     40273c <submitr+0x3a1>
  4024ff:	4c 8d a4 24 30 60 00 	lea    0x6030(%rsp),%r12
  402506:	00 
  402507:	4d 89 e9             	mov    %r13,%r9
  40250a:	4c 8d 84 24 30 40 00 	lea    0x4030(%rsp),%r8
  402511:	00 
  402512:	4c 89 f9             	mov    %r15,%rcx
  402515:	48 8b 54 24 08       	mov    0x8(%rsp),%rdx
  40251a:	48 8d 35 27 10 00 00 	lea    0x1027(%rip),%rsi        # 403548 <trans_char+0x38>
  402521:	4c 89 e7             	mov    %r12,%rdi
  402524:	b8 00 00 00 00       	mov    $0x0,%eax
  402529:	e8 72 e8 ff ff       	callq  400da0 <sprintf@plt>
  40252e:	b8 00 00 00 00       	mov    $0x0,%eax
  402533:	48 c7 c1 ff ff ff ff 	mov    $0xffffffffffffffff,%rcx
  40253a:	4c 89 e7             	mov    %r12,%rdi
  40253d:	f2 ae                	repnz scas %es:(%rdi),%al
  40253f:	48 f7 d1             	not    %rcx
  402542:	48 8d 51 ff          	lea    -0x1(%rcx),%rdx
  402546:	4c 89 e6             	mov    %r12,%rsi
  402549:	89 ef                	mov    %ebp,%edi
  40254b:	e8 e3 fc ff ff       	callq  402233 <rio_writen>
  402550:	48 85 c0             	test   %rax,%rax
  402553:	0f 88 6d 02 00 00    	js     4027c6 <submitr+0x42b>
  402559:	4c 8d a4 24 30 80 00 	lea    0x8030(%rsp),%r12
  402560:	00 
  402561:	89 ee                	mov    %ebp,%esi
  402563:	4c 89 e7             	mov    %r12,%rdi
  402566:	e8 af fb ff ff       	callq  40211a <rio_readinitb>
  40256b:	48 8d b4 24 30 60 00 	lea    0x6030(%rsp),%rsi
  402572:	00 
  402573:	ba 00 20 00 00       	mov    $0x2000,%edx
  402578:	4c 89 e7             	mov    %r12,%rdi
  40257b:	e8 9c fd ff ff       	callq  40231c <rio_readlineb>
  402580:	48 85 c0             	test   %rax,%rax
  402583:	0f 8e ab 02 00 00    	jle    402834 <submitr+0x499>
  402589:	48 8d 8c 24 2c 20 00 	lea    0x202c(%rsp),%rcx
  402590:	00 
  402591:	48 8d 94 24 30 20 00 	lea    0x2030(%rsp),%rdx
  402598:	00 
  402599:	48 8d bc 24 30 60 00 	lea    0x6030(%rsp),%rdi
  4025a0:	00 
  4025a1:	4c 8d 44 24 20       	lea    0x20(%rsp),%r8
  4025a6:	48 8d 35 12 10 00 00 	lea    0x1012(%rip),%rsi        # 4035bf <trans_char+0xaf>
  4025ad:	b8 00 00 00 00       	mov    $0x0,%eax
  4025b2:	e8 79 e7 ff ff       	callq  400d30 <__isoc99_sscanf@plt>
  4025b7:	e9 9f 03 00 00       	jmpq   40295b <submitr+0x5c0>
  4025bc:	48 b8 45 72 72 6f 72 	movabs $0x43203a726f727245,%rax
  4025c3:	3a 20 43 
  4025c6:	48 89 03             	mov    %rax,(%rbx)
  4025c9:	48 b8 6c 69 65 6e 74 	movabs $0x6e7520746e65696c,%rax
  4025d0:	20 75 6e 
  4025d3:	48 89 43 08          	mov    %rax,0x8(%rbx)
  4025d7:	48 b8 61 62 6c 65 20 	movabs $0x206f7420656c6261,%rax
  4025de:	74 6f 20 
  4025e1:	48 89 43 10          	mov    %rax,0x10(%rbx)
  4025e5:	48 b8 63 72 65 61 74 	movabs $0x7320657461657263,%rax
  4025ec:	65 20 73 
  4025ef:	48 89 43 18          	mov    %rax,0x18(%rbx)
  4025f3:	c7 43 20 6f 63 6b 65 	movl   $0x656b636f,0x20(%rbx)
  4025fa:	66 c7 43 24 74 00    	movw   $0x74,0x24(%rbx)
  402600:	b8 ff ff ff ff       	mov    $0xffffffff,%eax
  402605:	e9 18 03 00 00       	jmpq   402922 <submitr+0x587>
  40260a:	48 b8 45 72 72 6f 72 	movabs $0x44203a726f727245,%rax
  402611:	3a 20 44 
  402614:	48 89 03             	mov    %rax,(%rbx)
  402617:	48 b8 4e 53 20 69 73 	movabs $0x6e7520736920534e,%rax
  40261e:	20 75 6e 
  402621:	48 89 43 08          	mov    %rax,0x8(%rbx)
  402625:	48 b8 61 62 6c 65 20 	movabs $0x206f7420656c6261,%rax
  40262c:	74 6f 20 
  40262f:	48 89 43 10          	mov    %rax,0x10(%rbx)
  402633:	48 b8 72 65 73 6f 6c 	movabs $0x2065766c6f736572,%rax
  40263a:	76 65 20 
  40263d:	48 89 43 18          	mov    %rax,0x18(%rbx)
  402641:	48 b8 73 65 72 76 65 	movabs $0x6120726576726573,%rax
  402648:	72 20 61 
  40264b:	48 89 43 20          	mov    %rax,0x20(%rbx)
  40264f:	c7 43 28 64 64 72 65 	movl   $0x65726464,0x28(%rbx)
  402656:	66 c7 43 2c 73 73    	movw   $0x7373,0x2c(%rbx)
  40265c:	c6 43 2e 00          	movb   $0x0,0x2e(%rbx)
  402660:	89 ef                	mov    %ebp,%edi
  402662:	e8 29 e6 ff ff       	callq  400c90 <close@plt>
  402667:	b8 ff ff ff ff       	mov    $0xffffffff,%eax
  40266c:	e9 b1 02 00 00       	jmpq   402922 <submitr+0x587>
  402671:	48 b8 45 72 72 6f 72 	movabs $0x55203a726f727245,%rax
  402678:	3a 20 55 
  40267b:	48 89 03             	mov    %rax,(%rbx)
  40267e:	48 b8 6e 61 62 6c 65 	movabs $0x6f7420656c62616e,%rax
  402685:	20 74 6f 
  402688:	48 89 43 08          	mov    %rax,0x8(%rbx)
  40268c:	48 b8 20 63 6f 6e 6e 	movabs $0x7463656e6e6f6320,%rax
  402693:	65 63 74 
  402696:	48 89 43 10          	mov    %rax,0x10(%rbx)
  40269a:	48 b8 20 74 6f 20 74 	movabs $0x20656874206f7420,%rax
  4026a1:	68 65 20 
  4026a4:	48 89 43 18          	mov    %rax,0x18(%rbx)
  4026a8:	c7 43 20 73 65 72 76 	movl   $0x76726573,0x20(%rbx)
  4026af:	66 c7 43 24 65 72    	movw   $0x7265,0x24(%rbx)
  4026b5:	c6 43 26 00          	movb   $0x0,0x26(%rbx)
  4026b9:	89 ef                	mov    %ebp,%edi
  4026bb:	e8 d0 e5 ff ff       	callq  400c90 <close@plt>
  4026c0:	b8 ff ff ff ff       	mov    $0xffffffff,%eax
  4026c5:	e9 58 02 00 00       	jmpq   402922 <submitr+0x587>
  4026ca:	48 b8 45 72 72 6f 72 	movabs $0x52203a726f727245,%rax
  4026d1:	3a 20 52 
  4026d4:	48 89 03             	mov    %rax,(%rbx)
  4026d7:	48 b8 65 73 75 6c 74 	movabs $0x747320746c757365,%rax
  4026de:	20 73 74 
  4026e1:	48 89 43 08          	mov    %rax,0x8(%rbx)
  4026e5:	48 b8 72 69 6e 67 20 	movabs $0x6f6f7420676e6972,%rax
  4026ec:	74 6f 6f 
  4026ef:	48 89 43 10          	mov    %rax,0x10(%rbx)
  4026f3:	48 b8 20 6c 61 72 67 	movabs $0x202e656772616c20,%rax
  4026fa:	65 2e 20 
  4026fd:	48 89 43 18          	mov    %rax,0x18(%rbx)
  402701:	48 b8 49 6e 63 72 65 	movabs $0x6573616572636e49,%rax
  402708:	61 73 65 
  40270b:	48 89 43 20          	mov    %rax,0x20(%rbx)
  40270f:	48 b8 20 53 55 42 4d 	movabs $0x5254494d42555320,%rax
  402716:	49 54 52 
  402719:	48 89 43 28          	mov    %rax,0x28(%rbx)
  40271d:	48 b8 5f 4d 41 58 42 	movabs $0x46554258414d5f,%rax
  402724:	55 46 00 
  402727:	48 89 43 30          	mov    %rax,0x30(%rbx)
  40272b:	89 ef                	mov    %ebp,%edi
  40272d:	e8 5e e5 ff ff       	callq  400c90 <close@plt>
  402732:	b8 ff ff ff ff       	mov    $0xffffffff,%eax
  402737:	e9 e6 01 00 00       	jmpq   402922 <submitr+0x587>
  40273c:	48 b8 45 72 72 6f 72 	movabs $0x52203a726f727245,%rax
  402743:	3a 20 52 
  402746:	48 89 03             	mov    %rax,(%rbx)
  402749:	48 b8 65 73 75 6c 74 	movabs $0x747320746c757365,%rax
  402750:	20 73 74 
  402753:	48 89 43 08          	mov    %rax,0x8(%rbx)
  402757:	48 b8 72 69 6e 67 20 	movabs $0x6e6f6320676e6972,%rax
  40275e:	63 6f 6e 
  402761:	48 89 43 10          	mov    %rax,0x10(%rbx)
  402765:	48 b8 74 61 69 6e 73 	movabs $0x6e6120736e696174,%rax
  40276c:	20 61 6e 
  40276f:	48 89 43 18          	mov    %rax,0x18(%rbx)
  402773:	48 b8 20 69 6c 6c 65 	movabs $0x6c6167656c6c6920,%rax
  40277a:	67 61 6c 
  40277d:	48 89 43 20          	mov    %rax,0x20(%rbx)
  402781:	48 b8 20 6f 72 20 75 	movabs $0x72706e7520726f20,%rax
  402788:	6e 70 72 
  40278b:	48 89 43 28          	mov    %rax,0x28(%rbx)
  40278f:	48 b8 69 6e 74 61 62 	movabs $0x20656c6261746e69,%rax
  402796:	6c 65 20 
  402799:	48 89 43 30          	mov    %rax,0x30(%rbx)
  40279d:	48 b8 63 68 61 72 61 	movabs $0x6574636172616863,%rax
  4027a4:	63 74 65 
  4027a7:	48 89 43 38          	mov    %rax,0x38(%rbx)
  4027ab:	66 c7 43 40 72 2e    	movw   $0x2e72,0x40(%rbx)
  4027b1:	c6 43 42 00          	movb   $0x0,0x42(%rbx)
  4027b5:	89 ef                	mov    %ebp,%edi
  4027b7:	e8 d4 e4 ff ff       	callq  400c90 <close@plt>
  4027bc:	b8 ff ff ff ff       	mov    $0xffffffff,%eax
  4027c1:	e9 5c 01 00 00       	jmpq   402922 <submitr+0x587>
  4027c6:	48 b8 45 72 72 6f 72 	movabs $0x43203a726f727245,%rax
  4027cd:	3a 20 43 
  4027d0:	48 89 03             	mov    %rax,(%rbx)
  4027d3:	48 b8 6c 69 65 6e 74 	movabs $0x6e7520746e65696c,%rax
  4027da:	20 75 6e 
  4027dd:	48 89 43 08          	mov    %rax,0x8(%rbx)
  4027e1:	48 b8 61 62 6c 65 20 	movabs $0x206f7420656c6261,%rax
  4027e8:	74 6f 20 
  4027eb:	48 89 43 10          	mov    %rax,0x10(%rbx)
  4027ef:	48 b8 77 72 69 74 65 	movabs $0x6f74206574697277,%rax
  4027f6:	20 74 6f 
  4027f9:	48 89 43 18          	mov    %rax,0x18(%rbx)
  4027fd:	48 b8 20 74 68 65 20 	movabs $0x7365722065687420,%rax
  402804:	72 65 73 
  402807:	48 89 43 20          	mov    %rax,0x20(%rbx)
  40280b:	48 b8 75 6c 74 20 73 	movabs $0x7672657320746c75,%rax
  402812:	65 72 76 
  402815:	48 89 43 28          	mov    %rax,0x28(%rbx)
  402819:	66 c7 43 30 65 72    	movw   $0x7265,0x30(%rbx)
  40281f:	c6 43 32 00          	movb   $0x0,0x32(%rbx)
  402823:	89 ef                	mov    %ebp,%edi
  402825:	e8 66 e4 ff ff       	callq  400c90 <close@plt>
  40282a:	b8 ff ff ff ff       	mov    $0xffffffff,%eax
  40282f:	e9 ee 00 00 00       	jmpq   402922 <submitr+0x587>
  402834:	48 b8 45 72 72 6f 72 	movabs $0x43203a726f727245,%rax
  40283b:	3a 20 43 
  40283e:	48 89 03             	mov    %rax,(%rbx)
  402841:	48 b8 6c 69 65 6e 74 	movabs $0x6e7520746e65696c,%rax
  402848:	20 75 6e 
  40284b:	48 89 43 08          	mov    %rax,0x8(%rbx)
  40284f:	48 b8 61 62 6c 65 20 	movabs $0x206f7420656c6261,%rax
  402856:	74 6f 20 
  402859:	48 89 43 10          	mov    %rax,0x10(%rbx)
  40285d:	48 b8 72 65 61 64 20 	movabs $0x7269662064616572,%rax
  402864:	66 69 72 
  402867:	48 89 43 18          	mov    %rax,0x18(%rbx)
  40286b:	48 b8 73 74 20 68 65 	movabs $0x6564616568207473,%rax
  402872:	61 64 65 
  402875:	48 89 43 20          	mov    %rax,0x20(%rbx)
  402879:	48 b8 72 20 66 72 6f 	movabs $0x72206d6f72662072,%rax
  402880:	6d 20 72 
  402883:	48 89 43 28          	mov    %rax,0x28(%rbx)
  402887:	48 b8 65 73 75 6c 74 	movabs $0x657320746c757365,%rax
  40288e:	20 73 65 
  402891:	48 89 43 30          	mov    %rax,0x30(%rbx)
  402895:	c7 43 38 72 76 65 72 	movl   $0x72657672,0x38(%rbx)
  40289c:	c6 43 3c 00          	movb   $0x0,0x3c(%rbx)
  4028a0:	89 ef                	mov    %ebp,%edi
  4028a2:	e8 e9 e3 ff ff       	callq  400c90 <close@plt>
  4028a7:	b8 ff ff ff ff       	mov    $0xffffffff,%eax
  4028ac:	eb 74                	jmp    402922 <submitr+0x587>
  4028ae:	48 b8 45 72 72 6f 72 	movabs $0x43203a726f727245,%rax
  4028b5:	3a 20 43 
  4028b8:	48 89 03             	mov    %rax,(%rbx)
  4028bb:	48 b8 6c 69 65 6e 74 	movabs $0x6e7520746e65696c,%rax
  4028c2:	20 75 6e 
  4028c5:	48 89 43 08          	mov    %rax,0x8(%rbx)
  4028c9:	48 b8 61 62 6c 65 20 	movabs $0x206f7420656c6261,%rax
  4028d0:	74 6f 20 
  4028d3:	48 89 43 10          	mov    %rax,0x10(%rbx)
  4028d7:	48 b8 72 65 61 64 20 	movabs $0x6165682064616572,%rax
  4028de:	68 65 61 
  4028e1:	48 89 43 18          	mov    %rax,0x18(%rbx)
  4028e5:	48 b8 64 65 72 73 20 	movabs $0x6f72662073726564,%rax
  4028ec:	66 72 6f 
  4028ef:	48 89 43 20          	mov    %rax,0x20(%rbx)
  4028f3:	48 b8 6d 20 74 68 65 	movabs $0x657220656874206d,%rax
  4028fa:	20 72 65 
  4028fd:	48 89 43 28          	mov    %rax,0x28(%rbx)
  402901:	48 b8 73 75 6c 74 20 	movabs $0x72657320746c7573,%rax
  402908:	73 65 72 
  40290b:	48 89 43 30          	mov    %rax,0x30(%rbx)
  40290f:	c7 43 38 76 65 72 00 	movl   $0x726576,0x38(%rbx)
  402916:	89 ef                	mov    %ebp,%edi
  402918:	e8 73 e3 ff ff       	callq  400c90 <close@plt>
  40291d:	b8 ff ff ff ff       	mov    $0xffffffff,%eax
  402922:	48 81 c4 58 a0 00 00 	add    $0xa058,%rsp
  402929:	5b                   	pop    %rbx
  40292a:	5d                   	pop    %rbp
  40292b:	41 5c                	pop    %r12
  40292d:	41 5d                	pop    %r13
  40292f:	41 5e                	pop    %r14
  402931:	41 5f                	pop    %r15
  402933:	c3                   	retq   
  402934:	85 c0                	test   %eax,%eax
  402936:	74 51                	je     402989 <submitr+0x5ee>
  402938:	48 8d b4 24 30 60 00 	lea    0x6030(%rsp),%rsi
  40293f:	00 
  402940:	48 8d bc 24 30 80 00 	lea    0x8030(%rsp),%rdi
  402947:	00 
  402948:	ba 00 20 00 00       	mov    $0x2000,%edx
  40294d:	e8 ca f9 ff ff       	callq  40231c <rio_readlineb>
  402952:	48 85 c0             	test   %rax,%rax
  402955:	0f 8e 53 ff ff ff    	jle    4028ae <submitr+0x513>
  40295b:	0f b6 94 24 30 60 00 	movzbl 0x6030(%rsp),%edx
  402962:	00 
  402963:	b8 0d 00 00 00       	mov    $0xd,%eax
  402968:	29 d0                	sub    %edx,%eax
  40296a:	75 c8                	jne    402934 <submitr+0x599>
  40296c:	0f b6 94 24 31 60 00 	movzbl 0x6031(%rsp),%edx
  402973:	00 
  402974:	b8 0a 00 00 00       	mov    $0xa,%eax
  402979:	29 d0                	sub    %edx,%eax
  40297b:	75 b7                	jne    402934 <submitr+0x599>
  40297d:	0f b6 84 24 32 60 00 	movzbl 0x6032(%rsp),%eax
  402984:	00 
  402985:	f7 d8                	neg    %eax
  402987:	eb ab                	jmp    402934 <submitr+0x599>
  402989:	48 8d b4 24 30 60 00 	lea    0x6030(%rsp),%rsi
  402990:	00 
  402991:	48 8d bc 24 30 80 00 	lea    0x8030(%rsp),%rdi
  402998:	00 
  402999:	ba 00 20 00 00       	mov    $0x2000,%edx
  40299e:	e8 79 f9 ff ff       	callq  40231c <rio_readlineb>
  4029a3:	48 85 c0             	test   %rax,%rax
  4029a6:	7e 67                	jle    402a0f <submitr+0x674>
  4029a8:	8b 94 24 2c 20 00 00 	mov    0x202c(%rsp),%edx
  4029af:	81 fa c8 00 00 00    	cmp    $0xc8,%edx
  4029b5:	0f 85 d7 00 00 00    	jne    402a92 <submitr+0x6f7>
  4029bb:	48 8d b4 24 30 60 00 	lea    0x6030(%rsp),%rsi
  4029c2:	00 
  4029c3:	48 89 df             	mov    %rbx,%rdi
  4029c6:	e8 55 e2 ff ff       	callq  400c20 <strcpy@plt>
  4029cb:	89 ef                	mov    %ebp,%edi
  4029cd:	e8 be e2 ff ff       	callq  400c90 <close@plt>
  4029d2:	0f b6 03             	movzbl (%rbx),%eax
  4029d5:	ba 4f 00 00 00       	mov    $0x4f,%edx
  4029da:	29 c2                	sub    %eax,%edx
  4029dc:	0f 85 da 00 00 00    	jne    402abc <submitr+0x721>
  4029e2:	0f b6 4b 01          	movzbl 0x1(%rbx),%ecx
  4029e6:	b8 4b 00 00 00       	mov    $0x4b,%eax
  4029eb:	29 c8                	sub    %ecx,%eax
  4029ed:	0f 85 cb 00 00 00    	jne    402abe <submitr+0x723>
  4029f3:	0f b6 4b 02          	movzbl 0x2(%rbx),%ecx
  4029f7:	b8 0a 00 00 00       	mov    $0xa,%eax
  4029fc:	29 c8                	sub    %ecx,%eax
  4029fe:	0f 85 ba 00 00 00    	jne    402abe <submitr+0x723>
  402a04:	0f b6 43 03          	movzbl 0x3(%rbx),%eax
  402a08:	f7 d8                	neg    %eax
  402a0a:	e9 af 00 00 00       	jmpq   402abe <submitr+0x723>
  402a0f:	48 b8 45 72 72 6f 72 	movabs $0x43203a726f727245,%rax
  402a16:	3a 20 43 
  402a19:	48 89 03             	mov    %rax,(%rbx)
  402a1c:	48 b8 6c 69 65 6e 74 	movabs $0x6e7520746e65696c,%rax
  402a23:	20 75 6e 
  402a26:	48 89 43 08          	mov    %rax,0x8(%rbx)
  402a2a:	48 b8 61 62 6c 65 20 	movabs $0x206f7420656c6261,%rax
  402a31:	74 6f 20 
  402a34:	48 89 43 10          	mov    %rax,0x10(%rbx)
  402a38:	48 b8 72 65 61 64 20 	movabs $0x6174732064616572,%rax
  402a3f:	73 74 61 
  402a42:	48 89 43 18          	mov    %rax,0x18(%rbx)
  402a46:	48 b8 74 75 73 20 6d 	movabs $0x7373656d20737574,%rax
  402a4d:	65 73 73 
  402a50:	48 89 43 20          	mov    %rax,0x20(%rbx)
  402a54:	48 b8 61 67 65 20 66 	movabs $0x6d6f726620656761,%rax
  402a5b:	72 6f 6d 
  402a5e:	48 89 43 28          	mov    %rax,0x28(%rbx)
  402a62:	48 b8 20 72 65 73 75 	movabs $0x20746c7573657220,%rax
  402a69:	6c 74 20 
  402a6c:	48 89 43 30          	mov    %rax,0x30(%rbx)
  402a70:	c7 43 38 73 65 72 76 	movl   $0x76726573,0x38(%rbx)
  402a77:	66 c7 43 3c 65 72    	movw   $0x7265,0x3c(%rbx)
  402a7d:	c6 43 3e 00          	movb   $0x0,0x3e(%rbx)
  402a81:	89 ef                	mov    %ebp,%edi
  402a83:	e8 08 e2 ff ff       	callq  400c90 <close@plt>
  402a88:	b8 ff ff ff ff       	mov    $0xffffffff,%eax
  402a8d:	e9 90 fe ff ff       	jmpq   402922 <submitr+0x587>
  402a92:	48 8d 4c 24 20       	lea    0x20(%rsp),%rcx
  402a97:	48 8d 35 ea 0a 00 00 	lea    0xaea(%rip),%rsi        # 403588 <trans_char+0x78>
  402a9e:	48 89 df             	mov    %rbx,%rdi
  402aa1:	b8 00 00 00 00       	mov    $0x0,%eax
  402aa6:	e8 f5 e2 ff ff       	callq  400da0 <sprintf@plt>
  402aab:	89 ef                	mov    %ebp,%edi
  402aad:	e8 de e1 ff ff       	callq  400c90 <close@plt>
  402ab2:	b8 ff ff ff ff       	mov    $0xffffffff,%eax
  402ab7:	e9 66 fe ff ff       	jmpq   402922 <submitr+0x587>
  402abc:	89 d0                	mov    %edx,%eax
  402abe:	f7 d8                	neg    %eax
  402ac0:	0f 84 5c fe ff ff    	je     402922 <submitr+0x587>
  402ac6:	b9 05 00 00 00       	mov    $0x5,%ecx
  402acb:	48 8d 3d fe 0a 00 00 	lea    0xafe(%rip),%rdi        # 4035d0 <trans_char+0xc0>
  402ad2:	48 89 de             	mov    %rbx,%rsi
  402ad5:	f3 a6                	repz cmpsb %es:(%rdi),%ds:(%rsi)
  402ad7:	0f 97 c0             	seta   %al
  402ada:	0f 92 c1             	setb   %cl
  402add:	29 c8                	sub    %ecx,%eax
  402adf:	0f be c0             	movsbl %al,%eax
  402ae2:	85 c0                	test   %eax,%eax
  402ae4:	0f 84 38 fe ff ff    	je     402922 <submitr+0x587>
  402aea:	85 d2                	test   %edx,%edx
  402aec:	75 13                	jne    402b01 <submitr+0x766>
  402aee:	0f b6 43 01          	movzbl 0x1(%rbx),%eax
  402af2:	ba 4b 00 00 00       	mov    $0x4b,%edx
  402af7:	29 c2                	sub    %eax,%edx
  402af9:	75 06                	jne    402b01 <submitr+0x766>
  402afb:	0f b6 53 02          	movzbl 0x2(%rbx),%edx
  402aff:	f7 da                	neg    %edx
  402b01:	89 d0                	mov    %edx,%eax
  402b03:	f7 d8                	neg    %eax
  402b05:	0f 84 17 fe ff ff    	je     402922 <submitr+0x587>
  402b0b:	b8 ff ff ff ff       	mov    $0xffffffff,%eax
  402b10:	e9 0d fe ff ff       	jmpq   402922 <submitr+0x587>

0000000000402b15 <init_timeout>:
  402b15:	85 ff                	test   %edi,%edi
  402b17:	74 20                	je     402b39 <init_timeout+0x24>
  402b19:	53                   	push   %rbx
  402b1a:	89 fb                	mov    %edi,%ebx
  402b1c:	85 ff                	test   %edi,%edi
  402b1e:	78 1b                	js     402b3b <init_timeout+0x26>
  402b20:	48 8d 35 05 f6 ff ff 	lea    -0x9fb(%rip),%rsi        # 40212c <sigalrm_handler>
  402b27:	bf 0e 00 00 00       	mov    $0xe,%edi
  402b2c:	e8 7f e1 ff ff       	callq  400cb0 <signal@plt>
  402b31:	89 df                	mov    %ebx,%edi
  402b33:	e8 48 e1 ff ff       	callq  400c80 <alarm@plt>
  402b38:	5b                   	pop    %rbx
  402b39:	f3 c3                	repz retq 
  402b3b:	bb 00 00 00 00       	mov    $0x0,%ebx
  402b40:	eb de                	jmp    402b20 <init_timeout+0xb>

0000000000402b42 <init_driver>:
  402b42:	41 54                	push   %r12
  402b44:	55                   	push   %rbp
  402b45:	53                   	push   %rbx
  402b46:	48 83 ec 10          	sub    $0x10,%rsp
  402b4a:	48 89 fd             	mov    %rdi,%rbp
  402b4d:	be 01 00 00 00       	mov    $0x1,%esi
  402b52:	bf 0d 00 00 00       	mov    $0xd,%edi
  402b57:	e8 54 e1 ff ff       	callq  400cb0 <signal@plt>
  402b5c:	be 01 00 00 00       	mov    $0x1,%esi
  402b61:	bf 1d 00 00 00       	mov    $0x1d,%edi
  402b66:	e8 45 e1 ff ff       	callq  400cb0 <signal@plt>
  402b6b:	be 01 00 00 00       	mov    $0x1,%esi
  402b70:	bf 1d 00 00 00       	mov    $0x1d,%edi
  402b75:	e8 36 e1 ff ff       	callq  400cb0 <signal@plt>
  402b7a:	ba 00 00 00 00       	mov    $0x0,%edx
  402b7f:	be 01 00 00 00       	mov    $0x1,%esi
  402b84:	bf 02 00 00 00       	mov    $0x2,%edi
  402b89:	e8 42 e2 ff ff       	callq  400dd0 <socket@plt>
  402b8e:	85 c0                	test   %eax,%eax
  402b90:	0f 88 80 00 00 00    	js     402c16 <init_driver+0xd4>
  402b96:	89 c3                	mov    %eax,%ebx
  402b98:	48 8d 3d 36 0a 00 00 	lea    0xa36(%rip),%rdi        # 4035d5 <trans_char+0xc5>
  402b9f:	e8 1c e1 ff ff       	callq  400cc0 <gethostbyname@plt>
  402ba4:	48 85 c0             	test   %rax,%rax
  402ba7:	0f 84 b5 00 00 00    	je     402c62 <init_driver+0x120>
  402bad:	48 c7 04 24 00 00 00 	movq   $0x0,(%rsp)
  402bb4:	00 
  402bb5:	48 c7 44 24 08 00 00 	movq   $0x0,0x8(%rsp)
  402bbc:	00 00 
  402bbe:	66 c7 04 24 02 00    	movw   $0x2,(%rsp)
  402bc4:	48 8b 48 18          	mov    0x18(%rax),%rcx
  402bc8:	48 63 50 14          	movslq 0x14(%rax),%rdx
  402bcc:	48 8d 74 24 04       	lea    0x4(%rsp),%rsi
  402bd1:	48 8b 39             	mov    (%rcx),%rdi
  402bd4:	e8 77 e1 ff ff       	callq  400d50 <bcopy@plt>
  402bd9:	66 c7 44 24 02 3c a4 	movw   $0xa43c,0x2(%rsp)
  402be0:	ba 10 00 00 00       	mov    $0x10,%edx
  402be5:	48 89 e6             	mov    %rsp,%rsi
  402be8:	89 df                	mov    %ebx,%edi
  402bea:	e8 d1 e1 ff ff       	callq  400dc0 <connect@plt>
  402bef:	85 c0                	test   %eax,%eax
  402bf1:	0f 88 d3 00 00 00    	js     402cca <init_driver+0x188>
  402bf7:	89 df                	mov    %ebx,%edi
  402bf9:	e8 92 e0 ff ff       	callq  400c90 <close@plt>
  402bfe:	66 c7 45 00 4f 4b    	movw   $0x4b4f,0x0(%rbp)
  402c04:	c6 45 02 00          	movb   $0x0,0x2(%rbp)
  402c08:	b8 00 00 00 00       	mov    $0x0,%eax
  402c0d:	48 83 c4 10          	add    $0x10,%rsp
  402c11:	5b                   	pop    %rbx
  402c12:	5d                   	pop    %rbp
  402c13:	41 5c                	pop    %r12
  402c15:	c3                   	retq   
  402c16:	48 b8 45 72 72 6f 72 	movabs $0x43203a726f727245,%rax
  402c1d:	3a 20 43 
  402c20:	48 89 45 00          	mov    %rax,0x0(%rbp)
  402c24:	48 b8 6c 69 65 6e 74 	movabs $0x6e7520746e65696c,%rax
  402c2b:	20 75 6e 
  402c2e:	48 89 45 08          	mov    %rax,0x8(%rbp)
  402c32:	48 b8 61 62 6c 65 20 	movabs $0x206f7420656c6261,%rax
  402c39:	74 6f 20 
  402c3c:	48 89 45 10          	mov    %rax,0x10(%rbp)
  402c40:	48 b8 63 72 65 61 74 	movabs $0x7320657461657263,%rax
  402c47:	65 20 73 
  402c4a:	48 89 45 18          	mov    %rax,0x18(%rbp)
  402c4e:	c7 45 20 6f 63 6b 65 	movl   $0x656b636f,0x20(%rbp)
  402c55:	66 c7 45 24 74 00    	movw   $0x74,0x24(%rbp)
  402c5b:	b8 ff ff ff ff       	mov    $0xffffffff,%eax
  402c60:	eb ab                	jmp    402c0d <init_driver+0xcb>
  402c62:	48 b8 45 72 72 6f 72 	movabs $0x44203a726f727245,%rax
  402c69:	3a 20 44 
  402c6c:	48 89 45 00          	mov    %rax,0x0(%rbp)
  402c70:	48 b8 4e 53 20 69 73 	movabs $0x6e7520736920534e,%rax
  402c77:	20 75 6e 
  402c7a:	48 89 45 08          	mov    %rax,0x8(%rbp)
  402c7e:	48 b8 61 62 6c 65 20 	movabs $0x206f7420656c6261,%rax
  402c85:	74 6f 20 
  402c88:	48 89 45 10          	mov    %rax,0x10(%rbp)
  402c8c:	48 b8 72 65 73 6f 6c 	movabs $0x2065766c6f736572,%rax
  402c93:	76 65 20 
  402c96:	48 89 45 18          	mov    %rax,0x18(%rbp)
  402c9a:	48 b8 73 65 72 76 65 	movabs $0x6120726576726573,%rax
  402ca1:	72 20 61 
  402ca4:	48 89 45 20          	mov    %rax,0x20(%rbp)
  402ca8:	c7 45 28 64 64 72 65 	movl   $0x65726464,0x28(%rbp)
  402caf:	66 c7 45 2c 73 73    	movw   $0x7373,0x2c(%rbp)
  402cb5:	c6 45 2e 00          	movb   $0x0,0x2e(%rbp)
  402cb9:	89 df                	mov    %ebx,%edi
  402cbb:	e8 d0 df ff ff       	callq  400c90 <close@plt>
  402cc0:	b8 ff ff ff ff       	mov    $0xffffffff,%eax
  402cc5:	e9 43 ff ff ff       	jmpq   402c0d <init_driver+0xcb>
  402cca:	48 b8 45 72 72 6f 72 	movabs $0x55203a726f727245,%rax
  402cd1:	3a 20 55 
  402cd4:	48 89 45 00          	mov    %rax,0x0(%rbp)
  402cd8:	48 b8 6e 61 62 6c 65 	movabs $0x6f7420656c62616e,%rax
  402cdf:	20 74 6f 
  402ce2:	48 89 45 08          	mov    %rax,0x8(%rbp)
  402ce6:	48 b8 20 63 6f 6e 6e 	movabs $0x7463656e6e6f6320,%rax
  402ced:	65 63 74 
  402cf0:	48 89 45 10          	mov    %rax,0x10(%rbp)
  402cf4:	48 b8 20 74 6f 20 73 	movabs $0x76726573206f7420,%rax
  402cfb:	65 72 76 
  402cfe:	48 89 45 18          	mov    %rax,0x18(%rbp)
  402d02:	66 c7 45 20 65 72    	movw   $0x7265,0x20(%rbp)
  402d08:	c6 45 22 00          	movb   $0x0,0x22(%rbp)
  402d0c:	89 df                	mov    %ebx,%edi
  402d0e:	e8 7d df ff ff       	callq  400c90 <close@plt>
  402d13:	b8 ff ff ff ff       	mov    $0xffffffff,%eax
  402d18:	e9 f0 fe ff ff       	jmpq   402c0d <init_driver+0xcb>

0000000000402d1d <driver_post>:
  402d1d:	53                   	push   %rbx
  402d1e:	4c 89 cb             	mov    %r9,%rbx
  402d21:	45 85 c0             	test   %r8d,%r8d
  402d24:	75 18                	jne    402d3e <driver_post+0x21>
  402d26:	48 85 ff             	test   %rdi,%rdi
  402d29:	74 05                	je     402d30 <driver_post+0x13>
  402d2b:	80 3f 00             	cmpb   $0x0,(%rdi)
  402d2e:	75 32                	jne    402d62 <driver_post+0x45>
  402d30:	66 c7 03 4f 4b       	movw   $0x4b4f,(%rbx)
  402d35:	c6 43 02 00          	movb   $0x0,0x2(%rbx)
  402d39:	44 89 c0             	mov    %r8d,%eax
  402d3c:	5b                   	pop    %rbx
  402d3d:	c3                   	retq   
  402d3e:	48 89 ce             	mov    %rcx,%rsi
  402d41:	48 8d 3d 9b 08 00 00 	lea    0x89b(%rip),%rdi        # 4035e3 <trans_char+0xd3>
  402d48:	b8 00 00 00 00       	mov    $0x0,%eax
  402d4d:	e8 0e df ff ff       	callq  400c60 <printf@plt>
  402d52:	66 c7 03 4f 4b       	movw   $0x4b4f,(%rbx)
  402d57:	c6 43 02 00          	movb   $0x0,0x2(%rbx)
  402d5b:	b8 00 00 00 00       	mov    $0x0,%eax
  402d60:	eb da                	jmp    402d3c <driver_post+0x1f>
  402d62:	48 83 ec 08          	sub    $0x8,%rsp
  402d66:	41 51                	push   %r9
  402d68:	49 89 c9             	mov    %rcx,%r9
  402d6b:	49 89 d0             	mov    %rdx,%r8
  402d6e:	48 89 f9             	mov    %rdi,%rcx
  402d71:	48 89 f2             	mov    %rsi,%rdx
  402d74:	be a4 3c 00 00       	mov    $0x3ca4,%esi
  402d79:	48 8d 3d 55 08 00 00 	lea    0x855(%rip),%rdi        # 4035d5 <trans_char+0xc5>
  402d80:	e8 16 f6 ff ff       	callq  40239b <submitr>
  402d85:	48 83 c4 10          	add    $0x10,%rsp
  402d89:	eb b1                	jmp    402d3c <driver_post+0x1f>

0000000000402d8b <check>:
  402d8b:	89 f8                	mov    %edi,%eax
  402d8d:	c1 e8 1c             	shr    $0x1c,%eax
  402d90:	85 c0                	test   %eax,%eax
  402d92:	74 1d                	je     402db1 <check+0x26>
  402d94:	b9 00 00 00 00       	mov    $0x0,%ecx
  402d99:	83 f9 1f             	cmp    $0x1f,%ecx
  402d9c:	7f 0d                	jg     402dab <check+0x20>
  402d9e:	89 f8                	mov    %edi,%eax
  402da0:	d3 e8                	shr    %cl,%eax
  402da2:	3c 0a                	cmp    $0xa,%al
  402da4:	74 11                	je     402db7 <check+0x2c>
  402da6:	83 c1 08             	add    $0x8,%ecx
  402da9:	eb ee                	jmp    402d99 <check+0xe>
  402dab:	b8 01 00 00 00       	mov    $0x1,%eax
  402db0:	c3                   	retq   
  402db1:	b8 00 00 00 00       	mov    $0x0,%eax
  402db6:	c3                   	retq   
  402db7:	b8 00 00 00 00       	mov    $0x0,%eax
  402dbc:	c3                   	retq   

0000000000402dbd <gencookie>:
  402dbd:	53                   	push   %rbx
  402dbe:	83 c7 01             	add    $0x1,%edi
  402dc1:	e8 3a de ff ff       	callq  400c00 <srandom@plt>
  402dc6:	e8 45 df ff ff       	callq  400d10 <random@plt>
  402dcb:	89 c3                	mov    %eax,%ebx
  402dcd:	89 c7                	mov    %eax,%edi
  402dcf:	e8 b7 ff ff ff       	callq  402d8b <check>
  402dd4:	85 c0                	test   %eax,%eax
  402dd6:	74 ee                	je     402dc6 <gencookie+0x9>
  402dd8:	89 d8                	mov    %ebx,%eax
  402dda:	5b                   	pop    %rbx
  402ddb:	c3                   	retq   
  402ddc:	0f 1f 40 00          	nopl   0x0(%rax)

0000000000402de0 <__libc_csu_init>:
  402de0:	41 57                	push   %r15
  402de2:	41 56                	push   %r14
  402de4:	41 89 ff             	mov    %edi,%r15d
  402de7:	41 55                	push   %r13
  402de9:	41 54                	push   %r12
  402deb:	4c 8d 25 16 20 20 00 	lea    0x202016(%rip),%r12        # 604e08 <__frame_dummy_init_array_entry>
  402df2:	55                   	push   %rbp
  402df3:	48 8d 2d 16 20 20 00 	lea    0x202016(%rip),%rbp        # 604e10 <__init_array_end>
  402dfa:	53                   	push   %rbx
  402dfb:	49 89 f6             	mov    %rsi,%r14
  402dfe:	49 89 d5             	mov    %rdx,%r13
  402e01:	4c 29 e5             	sub    %r12,%rbp
  402e04:	48 83 ec 08          	sub    $0x8,%rsp
  402e08:	48 c1 fd 03          	sar    $0x3,%rbp
  402e0c:	e8 9f dd ff ff       	callq  400bb0 <_init>
  402e11:	48 85 ed             	test   %rbp,%rbp
  402e14:	74 20                	je     402e36 <__libc_csu_init+0x56>
  402e16:	31 db                	xor    %ebx,%ebx
  402e18:	0f 1f 84 00 00 00 00 	nopl   0x0(%rax,%rax,1)
  402e1f:	00 
  402e20:	4c 89 ea             	mov    %r13,%rdx
  402e23:	4c 89 f6             	mov    %r14,%rsi
  402e26:	44 89 ff             	mov    %r15d,%edi
  402e29:	41 ff 14 dc          	callq  *(%r12,%rbx,8)
  402e2d:	48 83 c3 01          	add    $0x1,%rbx
  402e31:	48 39 dd             	cmp    %rbx,%rbp
  402e34:	75 ea                	jne    402e20 <__libc_csu_init+0x40>
  402e36:	48 83 c4 08          	add    $0x8,%rsp
  402e3a:	5b                   	pop    %rbx
  402e3b:	5d                   	pop    %rbp
  402e3c:	41 5c                	pop    %r12
  402e3e:	41 5d                	pop    %r13
  402e40:	41 5e                	pop    %r14
  402e42:	41 5f                	pop    %r15
  402e44:	c3                   	retq   
  402e45:	90                   	nop
  402e46:	66 2e 0f 1f 84 00 00 	nopw   %cs:0x0(%rax,%rax,1)
  402e4d:	00 00 00 

0000000000402e50 <__libc_csu_fini>:
  402e50:	f3 c3                	repz retq 

Disassembly of section .fini:

0000000000402e54 <_fini>:
  402e54:	48 83 ec 08          	sub    $0x8,%rsp
  402e58:	48 83 c4 08          	add    $0x8,%rsp
  402e5c:	c3                   	retq   
